(dp1
S'output'
p2
S"<class 'sqlite3.OperationalError'> no such table: room_change"
p3
sS'layer'
p4
S'/home/akash/web2py/applications/welcome/controllers/default.py'
p5
sS'code'
p6
S'# -*- coding: utf-8 -*-\n# this file is released under public domain and you can use without limitations\n\n#########################################################################\n## This is a sample controller\n## - index is the default action of any application\n## - user is required for authentication and authorization\n## - download is for downloading files uploaded in the db (does streaming)\n#########################################################################\n\ndef index():\n    """\n    example action using the internationalization operator T and flash\n    rendered by views/default/index.html or views/generic.html\n\n    if you need a simple wiki simply replace the two lines below with:\n    return auth.wiki()\n    """\n#    if not session.counter:\n   #     session.counter=1\n    session.counter=(session.counter or 0)+1\n    response.flash = T("HELLO GUYS")\n    return dict(message="Welcome to Our Hostel Management Portal!",counter=session.counter)\n#@auth.requires_permission(\'read\',\'person\')\ndef first():\n    if request.vars.visitor_name:\n        session.visitor_name=request.vars.visitor_name\n        redirect(URL(\'second\'))\n    return dict()\ndef second():\n    return dict()\n@auth.requires_login()\ndef p1():\n        return dict()\ndef p2():\n        return dict()\ndef p3():\n        return dict()\ndef p4():\n        return dict()\n@auth.requires_login()\ndef ak():\n    form = SQLFORM(db.image,user_signature=True).process()\n    images = db().select(db.image.ALL, orderby=db.image.title)\n    return locals()\n@auth.requires_login()\ndef dis():\n    form = SQLFORM(db.db_topic).process()\n    get_db_topics = db().select(db.db_topic.ALL, orderby=db.db_topic.topic_title)\n    return locals()\n@auth.requires_login()\ndef complain():\n    form = SQLFORM(db.complaintregister).process()\n    complaints = db().select(db.complaintregister.ALL,orderby=db.complaintregister.complain_title)\n    return locals()\n@auth.requires_login()\ndef changing():\n    form=SQLFORM(db.room_change).process()\n    changes=db().select(db.room_change.ALL,orderby=db.room_change.who_want_to_change_room)\n    return locals()\n@auth.requires_login()\ndef show_complain():\n    complaintregister = db.complaintregister(request.args(0,cast=int)) or redirect(URL(\'index\'))\n    db.complainpost.complain_id.default = complaintregister.id\n    form=SQLFORM(db.complainpost)\n    if form.process().accepted:\n        response.flash=\'your complaint is posted\'\n    comments = db(db.complainpost.complain_id==complaintregister.id).select()\n    return locals()\n@auth.requires_login()\ndef show2():\n    db_topic = db.db_topic(request.args(0,cast=int)) or redirect(URL(\'index\'))\n    db.db_post.discussion_id.default = db_topic.id\n    form=SQLFORM(db.db_post)\n    if form.process().accepted:\n        response.flash=\'your comment is posted\'\n    comments = db(db.db_post.discussion_id==db_topic.id).select()\n    return dict(form=form, comments=comments, db_topic=db_topic)\n@auth.requires_login()\ndef show():\n    image = db.image(request.args(0,cast=int)) or redirect(URL(\'index\'))\n    db.post.image_id.default = image.id\n    form = SQLFORM(db.post)\n    if form.process().accepted:\n        response.flash = \'Your comment is posted\'\n    comments = db(db.post.image_id==image.id).select()\n    #return dict(image=image, comments=comments, form=form)\n    return locals()\n#def download():\n#    return response.download(request, db)\ndef account_details():\n    #name=db.auth_user.first_name\n    if auth.is_logged_in():\n        account_type=db.auth_user(auth.user_id).type_of_account\n        account_name=db.auth_user(auth.user_id).first_name\n        account_lastname=db.auth_user(auth.user_id).last_name\n        account_admission_number=db.auth_user(auth.user_id).admission_number\n        account_email=db.auth_user(auth.user_id).email\n        account_room_number=db.auth_user(auth.user_id).room_number\n        account_room_partner=db.auth_user(auth.user_id).room_partner\n    return dict(account_type=account_type,account_name=account_name,account_lastname=account_lastname,account_admission_number=account_admission_number,account_email=account_email,account_room_number=account_room_number,account_room_partner=account_room_partner)\ndef display_form():\n    form=FORM(\'Your name:\',\n              INPUT(_name=\'name\',requires=IS_NOT_EMPTY()),\n              INPUT(_type=\'submit\'))\n    if form.accepts(request,session):\n        response.flash=\'form accepted\'\n    elif form.errors:\n        response.flash=\'form has errors\'\n    else:\n        response.flash=\'please fill the form\'\n    return dict(form=form)\ndef user():\n    """\n    exposes:\n    http://..../[app]/default/user/login\n    http://..../[app]/default/user/logout\n    http://..../[app]/default/user/register\n    http://..../[app]/default/user/profile\n    http://..../[app]/default/user/retrieve_password\n    http://..../[app]/default/user/change_password\n    http://..../[app]/default/user/manage_users (requires membership in\n    http://..../[app]/default/user/bulk_register\n    use @auth.requires_login()\n        @auth.requires_membership(\'group name\')\n        @auth.requires_permission(\'read\',\'table name\',record_id)\n    to decorate functions that need access control\n    """\n    return dict(form=auth())\n@auth.requires_membership(\'manager\')\ndef manage():\n    grid = SQLFORM.smartgrid(db.image,linked_tabled=[\'post\'])\n    return dict(grid=grid)\n@cache.action()\ndef download():\n    """\n    allows downloading of uploaded files\n    http://..../[app]/default/download/[filename]\n    """\n    return response.download(request, db)\ndef wiki1():\n    return auth.wiki()\ndef call():\n    """\n    exposes services. for example:\n    http://..../[app]/default/call/jsonrpc\n    decorate with @services.jsonrpc the functions to expose\n    supports xml, json, xmlrpc, jsonrpc, amfrpc, rss, csv\n    """\n    return service()\ndef contacts():\n    grid=SQLFORM.grid(db.contact, user_signature=True)\n    #db.contact.csv.readable=db.contact.csv.writable=False\n    return dict(grid=grid)\n\nresponse._vars=response._caller(changing)\n'
p7
sS'snapshot'
p8
(dp9
S'exception'
p10
(dp11
S'__module__'
p12
S"'sqlite3'"
p13
sS'__getslice__'
p14
S"<method-wrapper '__getslice__' of OperationalError object>"
p15
sS'__str__'
p16
S"<method-wrapper '__str__' of OperationalError object>"
p17
sS'__reduce__'
p18
S'<built-in method __reduce__ of OperationalError object>'
p19
sS'__dict__'
p20
S'{}'
p21
sS'__sizeof__'
p22
S'<built-in method __sizeof__ of OperationalError object>'
p23
sS'__weakref__'
p24
S'None'
p25
sS'__init__'
p26
S"<method-wrapper '__init__' of OperationalError object>"
p27
sS'__setattr__'
p28
S"<method-wrapper '__setattr__' of OperationalError object>"
p29
sS'__reduce_ex__'
p30
S'<built-in method __reduce_ex__ of OperationalError object>'
p31
sS'__new__'
p32
S'<built-in method __new__ of type object>'
p33
sS'__format__'
p34
S'<built-in method __format__ of OperationalError object>'
p35
sS'__class__'
p36
S"<class 'sqlite3.OperationalError'>"
p37
sS'__doc__'
p38
S'None'
p39
sS'__getitem__'
p40
S"<method-wrapper '__getitem__' of OperationalError object>"
p41
sS'__setstate__'
p42
S'<built-in method __setstate__ of OperationalError object>'
p43
sS'__getattribute__'
p44
S"<method-wrapper '__getattribute__' of OperationalError object>"
p45
sS'args'
p46
S"('no such table: room_change',)"
p47
sS'__subclasshook__'
p48
S'<built-in method __subclasshook__ of type object>'
p49
sS'__unicode__'
p50
S'<built-in method __unicode__ of OperationalError object>'
p51
sS'__delattr__'
p52
S"<method-wrapper '__delattr__' of OperationalError object>"
p53
sS'__repr__'
p54
S"<method-wrapper '__repr__' of OperationalError object>"
p55
sS'__hash__'
p56
S"<method-wrapper '__hash__' of OperationalError object>"
p57
ssS'evalue'
p58
S'no such table: room_change'
p59
sS'request'
p60
cgluon.html
XML_unpickle
p61
(S's\xb7T\x00\x00<div><table><tr><td style="font-weight:bold;vertical-align:top;">ajax</td><td style="vertical-align:top;">:</td><td><div>False</div></td></tr><tr><td style="font-weight:bold;vertical-align:top;">application</td><td style="vertical-align:top;">:</td><td><div>welcome</div></td></tr><tr><td style="font-weight:bold;vertical-align:top;">args</td><td style="vertical-align:top;">:</td><td><div><table></table></div></td></tr><tr><td style="font-weight:bold;vertical-align:top;">cid</td><td style="vertical-align:top;">:</td><td><div>None</div></td></tr><tr><td style="font-weight:bold;vertical-align:top;">client</td><td style="vertical-align:top;">:</td><td><div>127.0.0.1</div></td></tr><tr><td style="font-weight:bold;vertical-align:top;">controller</td><td style="vertical-align:top;">:</td><td><div>default</div></td></tr><tr><td style="font-weight:bold;vertical-align:top;">cookies</td><td style="vertical-align:top;">:</td><td><div><table><tr><td style="font-weight:bold;vertical-align:top;">session_id_admin</td><td style="vertical-align:top;">:</td><td><div>127.0.0.1-ab294015-aeaf-42f8-ac7b-d6a2b3e9d799<table><tr><td style="font-weight:bold;vertical-align:top;">comment</td><td style="vertical-align:top;">:</td><td><div></div></td></tr><tr><td style="font-weight:bold;vertical-align:top;">domain</td><td style="vertical-align:top;">:</td><td><div></div></td></tr><tr><td style="font-weight:bold;vertical-align:top;">expires</td><td style="vertical-align:top;">:</td><td><div></div></td></tr><tr><td style="font-weight:bold;vertical-align:top;">httponly</td><td style="vertical-align:top;">:</td><td><div></div></td></tr><tr><td style="font-weight:bold;vertical-align:top;">max-age</td><td style="vertical-align:top;">:</td><td><div></div></td></tr><tr><td style="font-weight:bold;vertical-align:top;">path</td><td style="vertical-align:top;">:</td><td><div></div></td></tr><tr><td style="font-weight:bold;vertical-align:top;">secure</td><td style="vertical-align:top;">:</td><td><div></div></td></tr><tr><td style="font-weight:bold;vertical-align:top;">version</td><td style="vertical-align:top;">:</td><td><div></div></td></tr></table></div></td></tr><tr><td style="font-weight:bold;vertical-align:top;">session_id_welcome</td><td style="vertical-align:top;">:</td><td><div>127.0.0.1-d3f91528-6f9d-4ada-87b7-0cc759ab566d<table><tr><td style="font-weight:bold;vertical-align:top;">comment</td><td style="vertical-align:top;">:</td><td><div></div></td></tr><tr><td style="font-weight:bold;vertical-align:top;">domain</td><td style="vertical-align:top;">:</td><td><div></div></td></tr><tr><td style="font-weight:bold;vertical-align:top;">expires</td><td style="vertical-align:top;">:</td><td><div></div></td></tr><tr><td style="font-weight:bold;vertical-align:top;">httponly</td><td style="vertical-align:top;">:</td><td><div></div></td></tr><tr><td style="font-weight:bold;vertical-align:top;">max-age</td><td style="vertical-align:top;">:</td><td><div></div></td></tr><tr><td style="font-weight:bold;vertical-align:top;">path</td><td style="vertical-align:top;">:</td><td><div></div></td></tr><tr><td style="font-weight:bold;vertical-align:top;">secure</td><td style="vertical-align:top;">:</td><td><div></div></td></tr><tr><td style="font-weight:bold;vertical-align:top;">version</td><td style="vertical-align:top;">:</td><td><div></div></td></tr></table></div></td></tr></table></div></td></tr><tr><td style="font-weight:bold;vertical-align:top;">env</td><td style="vertical-align:top;">:</td><td><div><table><tr><td style="font-weight:bold;vertical-align:top;">HTTP_ACCEPT</td><td style="vertical-align:top;">:</td><td><div>text/html,application/xhtml+xml,application/xml;q=0.9,*/*;q=0.8</div></td></tr><tr><td style="font-weight:bold;vertical-align:top;">HTTP_ACCEPT_ENCODING</td><td style="vertical-align:top;">:</td><td><div>gzip, deflate</div></td></tr><tr><td style="font-weight:bold;vertical-align:top;">HTTP_ACCEPT_LANGUAGE</td><td style="vertical-align:top;">:</td><td><div>en-US,en;q=0.5</div></td></tr><tr><td style="font-weight:bold;vertical-align:top;">HTTP_CONNECTION</td><td style="vertical-align:top;">:</td><td><div>keep-alive</div></td></tr><tr><td style="font-weight:bold;vertical-align:top;">HTTP_COOKIE</td><td style="vertical-align:top;">:</td><td><div>session_id_welcome=127.0.0.1-d3f91528-6f9d-4ada-87b7-0cc759ab566d; session_id_admin=127.0.0.1-ab294015-aeaf-42f8-ac7b-d6a2b3e9d799</div></td></tr><tr><td style="font-weight:bold;vertical-align:top;">HTTP_HOST</td><td style="vertical-align:top;">:</td><td><div>127.0.0.1:8000</div></td></tr><tr><td style="font-weight:bold;vertical-align:top;">HTTP_REFERER</td><td style="vertical-align:top;">:</td><td><div>http://127.0.0.1:8000/admin/default/edit/welcome/controllers/default.py?id=controllers__default__py</div></td></tr><tr><td style="font-weight:bold;vertical-align:top;">HTTP_USER_AGENT</td><td style="vertical-align:top;">:</td><td><div>Mozilla/5.0 (X11; Ubuntu; Linux i686; rv:39.0) Gecko/20100101 Firefox/39.0</div></td></tr><tr><td style="font-weight:bold;vertical-align:top;">PATH_INFO</td><td style="vertical-align:top;">:</td><td><div>/welcome/default/changing</div></td></tr><tr><td style="font-weight:bold;vertical-align:top;">QUERY_STRING</td><td style="vertical-align:top;">:</td><td><div></div></td></tr><tr><td style="font-weight:bold;vertical-align:top;">REMOTE_ADDR</td><td style="vertical-align:top;">:</td><td><div>127.0.0.1</div></td></tr><tr><td style="font-weight:bold;vertical-align:top;">REMOTE_PORT</td><td style="vertical-align:top;">:</td><td><div>38214</div></td></tr><tr><td style="font-weight:bold;vertical-align:top;">REQUEST_METHOD</td><td style="vertical-align:top;">:</td><td><div>GET</div></td></tr><tr><td style="font-weight:bold;vertical-align:top;">SCRIPT_NAME</td><td style="vertical-align:top;">:</td><td><div></div></td></tr><tr><td style="font-weight:bold;vertical-align:top;">SERVER_NAME</td><td style="vertical-align:top;">:</td><td><div>ThePrototype</div></td></tr><tr><td style="font-weight:bold;vertical-align:top;">SERVER_PORT</td><td style="vertical-align:top;">:</td><td><div>8000</div></td></tr><tr><td style="font-weight:bold;vertical-align:top;">SERVER_PROTOCOL</td><td style="vertical-align:top;">:</td><td><div>HTTP/1.1</div></td></tr><tr><td style="font-weight:bold;vertical-align:top;">SERVER_SOFTWARE</td><td style="vertical-align:top;">:</td><td><div>Rocket 1.2.6</div></td></tr><tr><td style="font-weight:bold;vertical-align:top;">app_folders</td><td style="vertical-align:top;">:</td><td><div>set([&#x27;/home/akash/web2py/applications/admin/&#x27;, &#x27;/home/akash/web2py/applications/welcome/&#x27;])</div></td></tr><tr><td style="font-weight:bold;vertical-align:top;">applications_parent</td><td style="vertical-align:top;">:</td><td><div>/home/akash/web2py</div></td></tr><tr><td style="font-weight:bold;vertical-align:top;">cmd_args</td><td style="vertical-align:top;">:</td><td><div><table></table></div></td></tr><tr><td style="font-weight:bold;vertical-align:top;">cmd_options</td><td style="vertical-align:top;">:</td><td><div>&lt;Values at 0xb5b3dc2c: {&#x27;verbose&#x27;: False, &#x27;ip&#x27;: &#x27;127.0.0.1&#x27;, &#x27;debuglevel&#x27;: 30, &#x27;with_scheduler&#x27;: False, &#x27;ips&#x27;: [&#x27;127.0.1.1&#x27;], &#x27;shutdown_timeout&#x27;: 5, &#x27;taskbar&#x27;: False, &#x27;with_coverage&#x27;: False, &#x27;scheduler_groups&#x27;: None, &#x27;port&#x27;: 8000, &#x27;maxthreads&#x27;: None, &#x27;softcron&#x27;: False, &#x27;server_name&#x27;: &#x27;ThePrototype&#x27;, &#x27;bpython&#x27;: False, &#x27;nogui&#x27;: False, &#x27;pid_filename&#x27;: &#x27;httpserver.pid&#x27;, &#x27;print_errors&#x27;: False, &#x27;extcron&#x27;: False, &#x27;runcron&#x27;: False, &#x27;run_system_tests&#x27;: False, &#x27;test&#x27;: None, &#x27;folder&#x27;: &#x27;/home/akash/web2py&#x27;, &#x27;config&#x27;: &#x27;&#x27;, &#x27;minthreads&#x27;: None, &#x27;shell&#x27;: None, &#x27;run&#x27;: &#x27;&#x27;, &#x27;log_filename&#x27;: &#x27;httpserver.log&#x27;, &#x27;profiler_dir&#x27;: None, &#x27;args&#x27;: [&#x27;&#x27;], &#x27;socket_timeout&#x27;: 5, &#x27;ssl_ca_certificate&#x27;: None, &#x27;scheduler&#x27;: None, &#x27;interfaces&#x27;: None, &#x27;ssl_private_key&#x27;: &#x27;&#x27;, &#x27;gae&#x27;: None, &#x27;password&#x27;: &#x27;&lt;ask&gt;&#x27;, &#x27;request_queue_size&#x27;: 5, &#x27;ssl_certificate&#x27;: &#x27;&#x27;, &#x27;cronjob&#x27;: False, &#x27;numthreads&#x27;: None, &#x27;quiet&#x27;: False, &#x27;import_models&#x27;: False, &#x27;timeout&#x27;: 10, &#x27;plain&#x27;: False, &#x27;nobanner&#x27;: False}&gt;</div></td></tr><tr><td style="font-weight:bold;vertical-align:top;">db_sessions</td><td style="vertical-align:top;">:</td><td><div>set([])</div></td></tr><tr><td style="font-weight:bold;vertical-align:top;">debugging</td><td style="vertical-align:top;">:</td><td><div>True</div></td></tr><tr><td style="font-weight:bold;vertical-align:top;">gluon_parent</td><td style="vertical-align:top;">:</td><td><div>/home/akash/web2py</div></td></tr><tr><td style="font-weight:bold;vertical-align:top;">http_accept</td><td style="vertical-align:top;">:</td><td><div>text/html,application/xhtml+xml,application/xml;q=0.9,*/*;q=0.8</div></td></tr><tr><td style="font-weight:bold;vertical-align:top;">http_accept_encoding</td><td style="vertical-align:top;">:</td><td><div>gzip, deflate</div></td></tr><tr><td style="font-weight:bold;vertical-align:top;">http_accept_language</td><td style="vertical-align:top;">:</td><td><div>en-US,en;q=0.5</div></td></tr><tr><td style="font-weight:bold;vertical-align:top;">http_connection</td><td style="vertical-align:top;">:</td><td><div>keep-alive</div></td></tr><tr><td style="font-weight:bold;vertical-align:top;">http_cookie</td><td style="vertical-align:top;">:</td><td><div>session_id_welcome=127.0.0.1-d3f91528-6f9d-4ada-87b7-0cc759ab566d; session_id_admin=127.0.0.1-ab294015-aeaf-42f8-ac7b-d6a2b3e9d799</div></td></tr><tr><td style="font-weight:bold;vertical-align:top;">http_host</td><td style="vertical-align:top;">:</td><td><div>127.0.0.1:8000</div></td></tr><tr><td style="font-weight:bold;vertical-align:top;">http_referer</td><td style="vertical-align:top;">:</td><td><div>http://127.0.0.1:8000/admin/default/edit/welcome/controllers/default.py?id=controllers__default__py</div></td></tr><tr><td style="font-weight:bold;vertical-align:top;">http_user_agent</td><td style="vertical-align:top;">:</td><td><div>Mozilla/5.0 (X11; Ubuntu; Linux i686; rv:39.0) Gecko/20100101 Firefox/39.0</div></td></tr><tr><td style="font-weight:bold;vertical-align:top;">is_jython</td><td style="vertical-align:top;">:</td><td><div>False</div></td></tr><tr><td style="font-weight:bold;vertical-align:top;">is_pypy</td><td style="vertical-align:top;">:</td><td><div>False</div></td></tr><tr><td style="font-weight:bold;vertical-align:top;">is_source</td><td style="vertical-align:top;">:</td><td><div>True</div></td></tr><tr><td style="font-weight:bold;vertical-align:top;">local_hosts</td><td style="vertical-align:top;">:</td><td><div><table><tr><td><div>ThePrototype</div></td></tr><tr><td><div>::1</div></td></tr><tr><td><div>127.0.1.1</div></td></tr><tr><td><div>::ffff:127.0.0.1</div></td></tr><tr><td><div>127.0.0.1</div></td></tr></table></div></td></tr><tr><td style="font-weight:bold;vertical-align:top;">path_info</td><td style="vertical-align:top;">:</td><td><div>/welcome/default/changing</div></td></tr><tr><td style="font-weight:bold;vertical-align:top;">query_string</td><td style="vertical-align:top;">:</td><td><div></div></td></tr><tr><td style="font-weight:bold;vertical-align:top;">remote_addr</td><td style="vertical-align:top;">:</td><td><div>127.0.0.1</div></td></tr><tr><td style="font-weight:bold;vertical-align:top;">remote_port</td><td style="vertical-align:top;">:</td><td><div>38214</div></td></tr><tr><td style="font-weight:bold;vertical-align:top;">request_method</td><td style="vertical-align:top;">:</td><td><div>GET</div></td></tr><tr><td style="font-weight:bold;vertical-align:top;">request_uri</td><td style="vertical-align:top;">:</td><td><div>/welcome/default/changing</div></td></tr><tr><td style="font-weight:bold;vertical-align:top;">script_name</td><td style="vertical-align:top;">:</td><td><div></div></td></tr><tr><td style="font-weight:bold;vertical-align:top;">server_name</td><td style="vertical-align:top;">:</td><td><div>ThePrototype</div></td></tr><tr><td style="font-weight:bold;vertical-align:top;">server_port</td><td style="vertical-align:top;">:</td><td><div>8000</div></td></tr><tr><td style="font-weight:bold;vertical-align:top;">server_protocol</td><td style="vertical-align:top;">:</td><td><div>HTTP/1.1</div></td></tr><tr><td style="font-weight:bold;vertical-align:top;">server_software</td><td style="vertical-align:top;">:</td><td><div>Rocket 1.2.6</div></td></tr><tr><td style="font-weight:bold;vertical-align:top;">web2py_path</td><td style="vertical-align:top;">:</td><td><div>/home/akash/web2py</div></td></tr><tr><td style="font-weight:bold;vertical-align:top;">web2py_version</td><td style="vertical-align:top;">:</td><td><div>2.12.3-stable+timestamp.2015.08.19.00.18.03</div></td></tr><tr><td style="font-weight:bold;vertical-align:top;">wsgi.errors</td><td style="vertical-align:top;">:</td><td><div>&lt;open file &#x27;&lt;stderr&gt;&#x27;, mode &#x27;w&#x27; at 0xb74b40d0&gt;</div></td></tr><tr><td style="font-weight:bold;vertical-align:top;">wsgi.file_wrapper</td><td style="vertical-align:top;">:</td><td><div>&lt;class wsgiref.util.FileWrapper at 0xb68eff5c&gt;</div></td></tr><tr><td style="font-weight:bold;vertical-align:top;">wsgi.input</td><td style="vertical-align:top;">:</td><td><div>&lt;socket._fileobject object at 0xadf5abac&gt;</div></td></tr><tr><td style="font-weight:bold;vertical-align:top;">wsgi.multiprocess</td><td style="vertical-align:top;">:</td><td><div>False</div></td></tr><tr><td style="font-weight:bold;vertical-align:top;">wsgi.multithread</td><td style="vertical-align:top;">:</td><td><div>True</div></td></tr><tr><td style="font-weight:bold;vertical-align:top;">wsgi.run_once</td><td style="vertical-align:top;">:</td><td><div>False</div></td></tr><tr><td style="font-weight:bold;vertical-align:top;">wsgi.url_scheme</td><td style="vertical-align:top;">:</td><td><div>http</div></td></tr><tr><td style="font-weight:bold;vertical-align:top;">wsgi.version</td><td style="vertical-align:top;">:</td><td><div><table><tr><td><div>1</div></td></tr><tr><td><div>0</div></td></tr></table></div></td></tr><tr><td style="font-weight:bold;vertical-align:top;">wsgi_errors</td><td style="vertical-align:top;">:</td><td><div>&lt;open file &#x27;&lt;stderr&gt;&#x27;, mode &#x27;w&#x27; at 0xb74b40d0&gt;</div></td></tr><tr><td style="font-weight:bold;vertical-align:top;">wsgi_file_wrapper</td><td style="vertical-align:top;">:</td><td><div>&lt;class wsgiref.util.FileWrapper at 0xb68eff5c&gt;</div></td></tr><tr><td style="font-weight:bold;vertical-align:top;">wsgi_input</td><td style="vertical-align:top;">:</td><td><div>&lt;socket._fileobject object at 0xadf5abac&gt;</div></td></tr><tr><td style="font-weight:bold;vertical-align:top;">wsgi_multiprocess</td><td style="vertical-align:top;">:</td><td><div>False</div></td></tr><tr><td style="font-weight:bold;vertical-align:top;">wsgi_multithread</td><td style="vertical-align:top;">:</td><td><div>True</div></td></tr><tr><td style="font-weight:bold;vertical-align:top;">wsgi_run_once</td><td style="vertical-align:top;">:</td><td><div>False</div></td></tr><tr><td style="font-weight:bold;vertical-align:top;">wsgi_url_scheme</td><td style="vertical-align:top;">:</td><td><div>http</div></td></tr><tr><td style="font-weight:bold;vertical-align:top;">wsgi_version</td><td style="vertical-align:top;">:</td><td><div><table><tr><td><div>1</div></td></tr><tr><td><div>0</div></td></tr></table></div></td></tr></table></div></td></tr><tr><td style="font-weight:bold;vertical-align:top;">extension</td><td style="vertical-align:top;">:</td><td><div>html</div></td></tr><tr><td style="font-weight:bold;vertical-align:top;">folder</td><td style="vertical-align:top;">:</td><td><div>/home/akash/web2py/applications/welcome/</div></td></tr><tr><td style="font-weight:bold;vertical-align:top;">function</td><td style="vertical-align:top;">:</td><td><div>changing</div></td></tr><tr><td style="font-weight:bold;vertical-align:top;">global_settings</td><td style="vertical-align:top;">:</td><td><div><table><tr><td style="font-weight:bold;vertical-align:top;">app_folders</td><td style="vertical-align:top;">:</td><td><div>set([&#x27;/home/akash/web2py/applications/admin/&#x27;, &#x27;/home/akash/web2py/applications/welcome/&#x27;])</div></td></tr><tr><td style="font-weight:bold;vertical-align:top;">applications_parent</td><td style="vertical-align:top;">:</td><td><div>/home/akash/web2py</div></td></tr><tr><td style="font-weight:bold;vertical-align:top;">cmd_args</td><td style="vertical-align:top;">:</td><td><div><table></table></div></td></tr><tr><td style="font-weight:bold;vertical-align:top;">cmd_options</td><td style="vertical-align:top;">:</td><td><div>&lt;Values at 0xb5b3dc2c: {&#x27;verbose&#x27;: False, &#x27;ip&#x27;: &#x27;127.0.0.1&#x27;, &#x27;debuglevel&#x27;: 30, &#x27;with_scheduler&#x27;: False, &#x27;ips&#x27;: [&#x27;127.0.1.1&#x27;], &#x27;shutdown_timeout&#x27;: 5, &#x27;taskbar&#x27;: False, &#x27;with_coverage&#x27;: False, &#x27;scheduler_groups&#x27;: None, &#x27;port&#x27;: 8000, &#x27;maxthreads&#x27;: None, &#x27;softcron&#x27;: False, &#x27;server_name&#x27;: &#x27;ThePrototype&#x27;, &#x27;bpython&#x27;: False, &#x27;nogui&#x27;: False, &#x27;pid_filename&#x27;: &#x27;httpserver.pid&#x27;, &#x27;print_errors&#x27;: False, &#x27;extcron&#x27;: False, &#x27;runcron&#x27;: False, &#x27;run_system_tests&#x27;: False, &#x27;test&#x27;: None, &#x27;folder&#x27;: &#x27;/home/akash/web2py&#x27;, &#x27;config&#x27;: &#x27;&#x27;, &#x27;minthreads&#x27;: None, &#x27;shell&#x27;: None, &#x27;run&#x27;: &#x27;&#x27;, &#x27;log_filename&#x27;: &#x27;httpserver.log&#x27;, &#x27;profiler_dir&#x27;: None, &#x27;args&#x27;: [&#x27;&#x27;], &#x27;socket_timeout&#x27;: 5, &#x27;ssl_ca_certificate&#x27;: None, &#x27;scheduler&#x27;: None, &#x27;interfaces&#x27;: None, &#x27;ssl_private_key&#x27;: &#x27;&#x27;, &#x27;gae&#x27;: None, &#x27;password&#x27;: &#x27;&lt;ask&gt;&#x27;, &#x27;request_queue_size&#x27;: 5, &#x27;ssl_certificate&#x27;: &#x27;&#x27;, &#x27;cronjob&#x27;: False, &#x27;numthreads&#x27;: None, &#x27;quiet&#x27;: False, &#x27;import_models&#x27;: False, &#x27;timeout&#x27;: 10, &#x27;plain&#x27;: False, &#x27;nobanner&#x27;: False}&gt;</div></td></tr><tr><td style="font-weight:bold;vertical-align:top;">db_sessions</td><td style="vertical-align:top;">:</td><td><div>set([])</div></td></tr><tr><td style="font-weight:bold;vertical-align:top;">debugging</td><td style="vertical-align:top;">:</td><td><div>True</div></td></tr><tr><td style="font-weight:bold;vertical-align:top;">gluon_parent</td><td style="vertical-align:top;">:</td><td><div>/home/akash/web2py</div></td></tr><tr><td style="font-weight:bold;vertical-align:top;">is_jython</td><td style="vertical-align:top;">:</td><td><div>False</div></td></tr><tr><td style="font-weight:bold;vertical-align:top;">is_pypy</td><td style="vertical-align:top;">:</td><td><div>False</div></td></tr><tr><td style="font-weight:bold;vertical-align:top;">is_source</td><td style="vertical-align:top;">:</td><td><div>True</div></td></tr><tr><td style="font-weight:bold;vertical-align:top;">local_hosts</td><td style="vertical-align:top;">:</td><td><div><table><tr><td><div>ThePrototype</div></td></tr><tr><td><div>::1</div></td></tr><tr><td><div>127.0.1.1</div></td></tr><tr><td><div>::ffff:127.0.0.1</div></td></tr><tr><td><div>127.0.0.1</div></td></tr></table></div></td></tr><tr><td style="font-weight:bold;vertical-align:top;">web2py_version</td><td style="vertical-align:top;">:</td><td><div>2.12.3-stable+timestamp.2015.08.19.00.18.03</div></td></tr></table></div></td></tr><tr><td style="font-weight:bold;vertical-align:top;">is_https</td><td style="vertical-align:top;">:</td><td><div>False</div></td></tr><tr><td style="font-weight:bold;vertical-align:top;">is_local</td><td style="vertical-align:top;">:</td><td><div>True</div></td></tr><tr><td style="font-weight:bold;vertical-align:top;">is_restful</td><td style="vertical-align:top;">:</td><td><div>False</div></td></tr><tr><td style="font-weight:bold;vertical-align:top;">is_sheduler</td><td style="vertical-align:top;">:</td><td><div>None</div></td></tr><tr><td style="font-weight:bold;vertical-align:top;">is_shell</td><td style="vertical-align:top;">:</td><td><div>None</div></td></tr><tr><td style="font-weight:bold;vertical-align:top;">now</td><td style="vertical-align:top;">:</td><td><div>datetime.datetime(2015, 9, 18, 21, 25, 38, 192360)</div></td></tr><tr><td style="font-weight:bold;vertical-align:top;">raw_args</td><td style="vertical-align:top;">:</td><td><div></div></td></tr><tr><td style="font-weight:bold;vertical-align:top;">raw_extension</td><td style="vertical-align:top;">:</td><td><div>None</div></td></tr><tr><td style="font-weight:bold;vertical-align:top;">url</td><td style="vertical-align:top;">:</td><td><div>/welcome/default/changing</div></td></tr><tr><td style="font-weight:bold;vertical-align:top;">utcnow</td><td style="vertical-align:top;">:</td><td><div>datetime.datetime(2015, 9, 18, 15, 55, 38, 192396)</div></td></tr><tr><td style="font-weight:bold;vertical-align:top;">wsgi</td><td style="vertical-align:top;">:</td><td><div>&lt;gluon.main.LazyWSGI object at 0xadf0120c&gt;</div></td></tr></table></div>'
tRp62
sS'frames'
p63
(lp64
(dp65
S'file'
p66
S'/home/akash/web2py/gluon/restricted.py'
p67
sS'dump'
p68
(dp69
S'environment'
p70
S"{'A': <class 'gluon.html.A'>, 'ANY_OF': <class 'gluon.validators.ANY_OF'>, 'ASSIGNJS': <function ASSIGNJS>, 'AppConfig': <function AppConfig>, 'Auth': <class 'gluon.tools.Auth'>, 'B': <class 'gluon.html.B'>, 'BEAUTIFY': <class 'gluon.html.BEAUTIFY'>, 'BODY': <class 'gluon.html.BODY'>, 'BR': <class 'gluon.html.BR'>, 'BUTTON': <class 'gluon.html.BUTTON'>, ...}"
p71
sS'ccode'
p72
S'<code object <module> at 0xb3ced8d8, file "/home...cations/welcome/controllers/default.py", line 11>'
p73
ssS'lnum'
p74
I227
sS'lines'
p75
(dp76
I224
S'            ccode = code'
p77
sI225
S'        else:'
p78
sI226
S'            ccode = compile2(code, layer)'
p79
sI227
S'        exec ccode in environment'
p80
sI228
S'    except HTTP:'
p81
sI229
S'        raise'
p82
sI230
S'    except RestrictedError:'
p83
sI231
S'        # do not encapsulate (obfuscate) the original RestrictedError'
p84
sI222
S'    try:'
p85
sI223
S'        if isinstance(code, types.CodeType):'
p86
ssS'call'
p87
S"(code='# -*- coding: utf-8 -*-\\n# this file is released ...grid)\\n\\nresponse._vars=response._caller(changing)\\n', environment={'A': <class 'gluon.html.A'>, 'ANY_OF': <class 'gluon.validators.ANY_OF'>, 'ASSIGNJS': <function ASSIGNJS>, 'AppConfig': <function AppConfig>, 'Auth': <class 'gluon.tools.Auth'>, 'B': <class 'gluon.html.B'>, 'BEAUTIFY': <class 'gluon.html.BEAUTIFY'>, 'BODY': <class 'gluon.html.BODY'>, 'BR': <class 'gluon.html.BR'>, 'BUTTON': <class 'gluon.html.BUTTON'>, ...}, layer='/home/akash/web2py/applications/welcome/controllers/default.py')"
p88
sS'func'
p89
S'restricted'
p90
sa(dp91
g66
S'/home/akash/web2py/applications/welcome/controllers/default.py'
p92
sg68
(dp93
sg74
I156
sg75
(dp94
I145
S'    exposes services. for example:'
p95
sI146
S'    http://..../[app]/default/call/jsonrpc'
p96
sI147
S'    decorate with @services.jsonrpc the functions to expose'
p97
sI148
S'    supports xml, json, xmlrpc, jsonrpc, amfrpc, rss, csv'
p98
sI149
S'    """'
p99
sI150
S'    return service()'
p100
sI151
S'def contacts():'
p101
sI152
S'    grid=SQLFORM.grid(db.contact, user_signature=True)'
p102
sI153
S'    #db.contact.csv.readable=db.contact.csv.writable=False'
p103
sI154
S'    return dict(grid=grid)'
p104
ssg87
S'()'
p105
sg89
S'<module>'
p106
sa(dp107
g66
S'/home/akash/web2py/gluon/globals.py'
p108
sg68
(dp109
S'self'
p110
S'undefined'
p111
sS'f'
S'<function changing>'
p112
ssg74
I412
sg75
(dp113
I416
S"        self.generic_patterns = ['*']"
p114
sI407
S"        self.flash = ''            # used by the default view layout"
p115
sI408
S'        self.meta = Storage()      # used by web2py_ajax.html'
p116
sI409
S'        self.menu = []             # used by the default view layout'
p117
sI410
S'        self.files = []            # used by web2py_ajax.html'
p118
sI411
S'        self._vars = None'
p119
sI412
S'        self._caller = lambda f: f()'
p120
sI413
S'        self._view_environment = None'
p121
sI414
S'        self._custom_commit = None'
p122
sI415
S'        self._custom_rollback = None'
p123
ssg87
S'(f=<function changing>)'
p124
sg89
S'<lambda>'
p125
sa(dp126
g66
S'/home/akash/web2py/gluon/tools.py'
p127
sg68
(dp128
S'action'
p129
S'<function changing>'
p130
sS'a'
S'()'
p131
sS'b'
g21
ssg74
I3774
sg75
(dp132
I3776
S'            f.__name__ = action.__name__'
p133
sI3777
S'            f.__dict__.update(action.__dict__)'
p134
sI3778
S'            return f'
p135
sI3769
S'                    flag = condition'
p136
sI3770
S'                if not flag:'
p137
sI3771
S'                    current.session.flash = self.messages.access_denied'
p138
sI3772
S'                    return call_or_redirect('
p139
sI3773
S'                        self.settings.on_failed_authorization)'
p140
sI3774
S'                return action(*a, **b)'
p141
sI3775
S'            f.__doc__ = action.__doc__'
p142
ssg87
S'(*a=(), **b={})'
p143
sg89
S'f'
sa(dp144
g66
S'/home/akash/web2py/applications/welcome/controllers/default.py'
p145
sg68
(dp146
S'orderby'
p147
g111
sS'db.room_change.who_want_to_change_room'
p148
S'<pydal.objects.Field object>'
p149
sS').select'
p150
g111
sS'db.room_change'
p151
S'<Table room_change (id,who_want_to_change_room,present_room,change_room_to)>'
p152
sS'global db'
p153
S'<DAL uri="sqlite://storage.sqlite">'
p154
sS'db.room_change.ALL'
p155
S'<pydal.helpers.classes.SQLALL object>'
p156
sS'changes'
p157
g111
ssg74
I59
sg75
(dp158
I54
S'    complaints = db().select(db.complaintregister.ALL,orderby=db.complaintregister.complain_title)'
p159
sI55
S'    return locals()'
p160
sI56
S'@auth.requires_login()'
p161
sI57
S'def changing():'
p162
sI58
S'    form=SQLFORM(db.room_change).process()'
p163
sI59
S'    changes=db().select(db.room_change.ALL,orderby=db.room_change.who_want_to_change_room)'
p164
sI60
S'    return locals()'
p165
sI61
S'@auth.requires_login()'
p166
sI62
S'def show_complain():'
p167
sI63
S"    complaintregister = db.complaintregister(request.args(0,cast=int)) or redirect(URL('index'))"
p168
ssg87
S'()'
p169
sg89
S'changing'
p170
sa(dp171
g66
S'/home/akash/web2py/gluon/packages/dal/pydal/objects.py'
p172
sg68
(dp173
S'self.query'
p174
S'None'
p175
sS'adapter.select'
p176
S'<bound method SQLiteAdapter.select of <pydal.adapters.sqlite.SQLiteAdapter object>>'
p177
sS'fields'
p178
S'[<pydal.objects.Field object>, <pydal.objects.Field object>, <pydal.objects.Field object>, <pydal.objects.Field object>]'
p179
sS'adapter'
p180
S'<pydal.adapters.sqlite.SQLiteAdapter object>'
p181
sS'attributes'
p182
S"{'orderby': <pydal.objects.Field object>}"
p183
sS'self'
p184
S'<Set None>'
p185
ssg74
I2002
sg75
(dp186
I1997
S"                                    attributes.get('join',None),"
p187
sI1998
S"                                    attributes.get('left',None),"
p188
sI1999
S"                                    attributes.get('orderby',None),"
p189
sI2000
S"                                    attributes.get('groupby',None))"
p190
sI2001
S'        fields = adapter.expand_all(fields, tablenames)'
p191
sI2002
S'        return adapter.select(self.query,fields,attributes)'
p192
sI2003
S''
sI2004
S'    def iterselect(self, *fields, **attributes):'
p193
sI2005
S'        adapter = self.db._adapter'
p194
sI2006
S'        tablenames = adapter.tables(self.query,'
p195
ssg87
S"(self=<Set None>, *fields=[<pydal.objects.Field object>, <pydal.objects.Field object>, <pydal.objects.Field object>, <pydal.objects.Field object>], **attributes={'orderby': <pydal.objects.Field object>})"
p196
sg89
S'select'
p197
sa(dp198
g66
S'/home/akash/web2py/gluon/packages/dal/pydal/adapters/sqlite.py'
p199
sg68
(dp200
S'fields'
p201
S'[<pydal.objects.Field object>, <pydal.objects.Field object>, <pydal.objects.Field object>, <pydal.objects.Field object>]'
p202
sS'self'
p203
S'<pydal.adapters.sqlite.SQLiteAdapter object>'
p204
sS').select'
p205
S'<bound method SQLiteAdapter.select of <pydal.adapters.sqlite.SQLiteAdapter object>>'
p206
sS'attributes'
p207
S"{'orderby': <pydal.objects.Field object>}"
p208
sS'global SQLiteAdapter'
p209
S"<class 'pydal.adapters.sqlite.SQLiteAdapter'>"
p210
sS'query'
p211
S'None'
p212
sS'builtinsuper'
p213
S"<type 'super'>"
p214
ssg74
I122
sg75
(dp215
I117
S'        Note that the entire database, rather than one record, is locked'
p216
sI118
S'        (it will be locked eventually anyway by the following UPDATE).'
p217
sI119
S'        """'
p218
sI120
S"        if attributes.get('for_update', False) and not 'cache' in attributes:"
p219
sI121
S"            self.execute('BEGIN IMMEDIATE TRANSACTION;')"
p220
sI122
S'        return super(SQLiteAdapter, self).select(query, fields, attributes)'
p221
sI123
S''
sI124
S''
sI125
S'SPATIALLIBS = {'
p222
sI126
S"    'Windows':'libspatialite',"
p223
ssg87
S"(self=<pydal.adapters.sqlite.SQLiteAdapter object>, query=None, fields=[<pydal.objects.Field object>, <pydal.objects.Field object>, <pydal.objects.Field object>, <pydal.objects.Field object>], attributes={'orderby': <pydal.objects.Field object>})"
p224
sg89
g197
sa(dp225
g66
S'/home/akash/web2py/gluon/packages/dal/pydal/adapters/base.py'
p226
sg68
(dp227
S'fields'
p228
S'[<pydal.objects.Field object>, <pydal.objects.Field object>, <pydal.objects.Field object>, <pydal.objects.Field object>]'
p229
sS'self'
p230
S'<pydal.adapters.sqlite.SQLiteAdapter object>'
p231
sS'attributes'
p232
S"{'orderby': <pydal.objects.Field object>}"
p233
sS'self._select_aux'
p234
S'<bound method SQLiteAdapter._select_aux of <pydal.adapters.sqlite.SQLiteAdapter object>>'
p235
sS'sql'
p236
S"'SELECT  room_change.id, room_change.who_want_to_...nge ORDER BY room_change.who_want_to_change_room;'"
p237
ssg74
I1286
sg75
(dp238
I1281
S'            return cache_model('
p239
sI1282
S'                key,'
p240
sI1283
S'                lambda self=self,args=args:self._select_aux(*args),'
p241
sI1284
S'                time_expire)'
p242
sI1285
S'        else:'
p243
sI1286
S'            return self._select_aux(sql,fields,attributes)'
p244
sI1287
S''
sI1288
S'    def iterselect(self, query, fields, attributes):'
p245
sI1289
S'        sql = self._select(query, fields, attributes)'
p246
sI1290
S"        cacheable = attributes.get('cacheable', False)"
p247
ssg87
S"(self=<pydal.adapters.sqlite.SQLiteAdapter object>, query=None, fields=[<pydal.objects.Field object>, <pydal.objects.Field object>, <pydal.objects.Field object>, <pydal.objects.Field object>], attributes={'orderby': <pydal.objects.Field object>})"
p248
sg89
g197
sa(dp249
g66
S'/home/akash/web2py/gluon/packages/dal/pydal/adapters/base.py'
p250
sg68
(dp251
S'self'
p252
S'<pydal.adapters.sqlite.SQLiteAdapter object>'
p253
sS'self.execute'
p254
S'<bound method SQLiteAdapter.execute of <pydal.adapters.sqlite.SQLiteAdapter object>>'
p255
sS'sql'
p256
S"'SELECT  room_change.id, room_change.who_want_to_...nge ORDER BY room_change.who_want_to_change_room;'"
p257
ssg74
I1243
sg75
(dp258
I1238
S''
sI1239
S'    def _select_aux(self, sql, fields, attributes):'
p259
sI1240
S'        args_get = attributes.get'
p260
sI1241
S"        cache = args_get('cache',None)"
p261
sI1242
S'        if not cache:'
p262
sI1243
S'            self.execute(sql)'
p263
sI1244
S'            rows = self._fetchall()'
p264
sI1245
S'        else:'
p265
sI1246
S'            if isinstance(cache, dict):'
p266
sI1247
S"                cache_model = cache['model']"
p267
ssg87
S"(self=<pydal.adapters.sqlite.SQLiteAdapter object>, sql='SELECT  room_change.id, room_change.who_want_to_...nge ORDER BY room_change.who_want_to_change_room;', fields=[<pydal.objects.Field object>, <pydal.objects.Field object>, <pydal.objects.Field object>, <pydal.objects.Field object>], attributes={'orderby': <pydal.objects.Field object>})"
p268
sg89
S'_select_aux'
p269
sa(dp270
g66
S'/home/akash/web2py/gluon/packages/dal/pydal/adapters/base.py'
p271
sg68
(dp272
S'a'
S"('SELECT  room_change.id, room_change.who_want_to_...nge ORDER BY room_change.who_want_to_change_room;',)"
p273
sS'self'
p274
S'<pydal.adapters.sqlite.SQLiteAdapter object>'
p275
sS'b'
g21
sS'self.log_execute'
p276
S'<bound method SQLiteAdapter.log_execute of <pydal.adapters.sqlite.SQLiteAdapter object>>'
p277
ssg74
I1378
sg75
(dp278
I1376
S''
sI1377
S'    def execute(self, *a, **b):'
p279
sI1378
S'        return self.log_execute(*a, **b)'
p280
sI1379
S''
sI1380
S'    def execute_test_query(self):'
p281
sI1381
S'        return self.execute(self.test_query)'
p282
sI1382
S''
sI1373
S'        self.db._timings.append((command,time.time()-t0))'
p283
sI1374
S'        del self.db._timings[:-TIMINGSSIZE]'
p284
sI1375
S'        return ret'
p285
ssg87
S"(self=<pydal.adapters.sqlite.SQLiteAdapter object>, *a=('SELECT  room_change.id, room_change.who_want_to_...nge ORDER BY room_change.who_want_to_change_room;',), **b={})"
p286
sg89
S'execute'
p287
sa(dp288
g66
S'/home/akash/web2py/gluon/packages/dal/pydal/adapters/base.py'
p289
sg68
(dp290
S'a'
S"('SELECT  room_change.id, room_change.who_want_to_...nge ORDER BY room_change.who_want_to_change_room;',)"
p291
sS'b'
g21
sS'self'
p292
S'<pydal.adapters.sqlite.SQLiteAdapter object>'
p293
sS'ret'
p294
g111
sS'self.cursor'
p295
S'<sqlite3.Cursor object>'
p296
sS'command'
p297
S"'SELECT  room_change.id, room_change.who_want_to_...nge ORDER BY room_change.who_want_to_change_room;'"
p298
sS'self.cursor.execute'
p299
S'<built-in method execute of sqlite3.Cursor object>'
p300
ssg74
I1372
sg75
(dp301
I1376
S''
sI1367
S'            command = self.filter_sql_command(command)'
p302
sI1368
S'        if self.db._debug:'
p303
sI1369
S"            self.db.logger.debug('SQL: %s' % command)"
p304
sI1370
S'        self.db._lastsql = command'
p305
sI1371
S'        t0 = time.time()'
p306
sI1372
S'        ret = self.cursor.execute(command, *a[1:], **b)'
p307
sI1373
S'        self.db._timings.append((command,time.time()-t0))'
p308
sI1374
S'        del self.db._timings[:-TIMINGSSIZE]'
p309
sI1375
S'        return ret'
p310
ssg87
S"(self=<pydal.adapters.sqlite.SQLiteAdapter object>, *a=('SELECT  room_change.id, room_change.who_want_to_...nge ORDER BY room_change.who_want_to_change_room;',), **b={})"
p311
sg89
S'log_execute'
p312
sasS'pyver'
p313
S'Python 2.7.6: /usr/bin/python (prefix: /usr)'
p314
sS'session'
p315
g61
(S'sI\r\x00\x00<div><table><tr><td style="font-weight:bold;vertical-align:top;">auth</td><td style="vertical-align:top;">:</td><td><div><table><tr><td style="font-weight:bold;vertical-align:top;">expiration</td><td style="vertical-align:top;">:</td><td><div>3600</div></td></tr><tr><td style="font-weight:bold;vertical-align:top;">hmac_key</td><td style="vertical-align:top;">:</td><td><div>663ad082-8428-418f-aa13-43ada99393e6</div></td></tr><tr><td style="font-weight:bold;vertical-align:top;">last_visit</td><td style="vertical-align:top;">:</td><td><div>datetime.datetime(2015, 9, 18, 21, 23, 57, 555288)</div></td></tr><tr><td style="font-weight:bold;vertical-align:top;">remember_me</td><td style="vertical-align:top;">:</td><td><div>False</div></td></tr><tr><td style="font-weight:bold;vertical-align:top;">user</td><td style="vertical-align:top;">:</td><td><div><table><tr><td style="font-weight:bold;vertical-align:top;">admission_number</td><td style="vertical-align:top;">:</td><td><div>IS201401004</div></td></tr><tr><td style="font-weight:bold;vertical-align:top;">email</td><td style="vertical-align:top;">:</td><td><div>akash.d14@iiits.in</div></td></tr><tr><td style="font-weight:bold;vertical-align:top;">first_name</td><td style="vertical-align:top;">:</td><td><div>Akash</div></td></tr><tr><td style="font-weight:bold;vertical-align:top;">gender</td><td style="vertical-align:top;">:</td><td><div>Male</div></td></tr><tr><td style="font-weight:bold;vertical-align:top;">id</td><td style="vertical-align:top;">:</td><td><div>14L</div></td></tr><tr><td style="font-weight:bold;vertical-align:top;">last_name</td><td style="vertical-align:top;">:</td><td><div>Das</div></td></tr><tr><td style="font-weight:bold;vertical-align:top;">phone_number</td><td style="vertical-align:top;">:</td><td><div>8978233562</div></td></tr><tr><td style="font-weight:bold;vertical-align:top;">physically_handicapped</td><td style="vertical-align:top;">:</td><td><div>No</div></td></tr><tr><td style="font-weight:bold;vertical-align:top;">registration_id</td><td style="vertical-align:top;">:</td><td><div></div></td></tr><tr><td style="font-weight:bold;vertical-align:top;">registration_key</td><td style="vertical-align:top;">:</td><td><div> </div></td></tr><tr><td style="font-weight:bold;vertical-align:top;">reset_password_key</td><td style="vertical-align:top;">:</td><td><div></div></td></tr><tr><td style="font-weight:bold;vertical-align:top;">room_number</td><td style="vertical-align:top;">:</td><td><div>20</div></td></tr><tr><td style="font-weight:bold;vertical-align:top;">room_partner</td><td style="vertical-align:top;">:</td><td><div>Abhishek</div></td></tr><tr><td style="font-weight:bold;vertical-align:top;">type_of_account</td><td style="vertical-align:top;">:</td><td><div>Super Admin</div></td></tr></table></div></td></tr><tr><td style="font-weight:bold;vertical-align:top;">user_groups</td><td style="vertical-align:top;">:</td><td><div><table><tr><td style="font-weight:bold;vertical-align:top;">15</td><td style="vertical-align:top;">:</td><td><div>user_14</div></td></tr></table></div></td></tr></table></div></td></tr><tr><td style="font-weight:bold;vertical-align:top;">counter</td><td style="vertical-align:top;">:</td><td><div>3</div></td></tr><tr><td style="font-weight:bold;vertical-align:top;">flash</td><td style="vertical-align:top;">:</td><td><div>None</div></td></tr></table></div>'
tRp316
sS'etype'
p317
S"<class 'sqlite3.OperationalError'>"
p318
sS'date'
p319
S'Fri Sep 18 21:25:38 2015'
p320
sS'response'
p321
g61
(S'sj\'\x00\x00<div><table><tr><td style="font-weight:bold;vertical-align:top;">body</td><td style="vertical-align:top;">:</td><td><div>&lt;cStringIO.StringO object at 0xadf52ea0&gt;</div></td></tr><tr><td style="font-weight:bold;vertical-align:top;">cookies</td><td style="vertical-align:top;">:</td><td><div><table><tr><td style="font-weight:bold;vertical-align:top;">session_id_welcome</td><td style="vertical-align:top;">:</td><td><div>127.0.0.1-d3f91528-6f9d-4ada-87b7-0cc759ab566d<table><tr><td style="font-weight:bold;vertical-align:top;">comment</td><td style="vertical-align:top;">:</td><td><div></div></td></tr><tr><td style="font-weight:bold;vertical-align:top;">domain</td><td style="vertical-align:top;">:</td><td><div></div></td></tr><tr><td style="font-weight:bold;vertical-align:top;">expires</td><td style="vertical-align:top;">:</td><td><div></div></td></tr><tr><td style="font-weight:bold;vertical-align:top;">httponly</td><td style="vertical-align:top;">:</td><td><div></div></td></tr><tr><td style="font-weight:bold;vertical-align:top;">max-age</td><td style="vertical-align:top;">:</td><td><div></div></td></tr><tr><td style="font-weight:bold;vertical-align:top;">path</td><td style="vertical-align:top;">:</td><td><div>/</div></td></tr><tr><td style="font-weight:bold;vertical-align:top;">secure</td><td style="vertical-align:top;">:</td><td><div></div></td></tr><tr><td style="font-weight:bold;vertical-align:top;">version</td><td style="vertical-align:top;">:</td><td><div></div></td></tr></table></div></td></tr></table></div></td></tr><tr><td style="font-weight:bold;vertical-align:top;">delimiters</td><td style="vertical-align:top;">:</td><td><div><table><tr><td><div>{{</div></td></tr><tr><td><div>}}</div></td></tr></table></div></td></tr><tr><td style="font-weight:bold;vertical-align:top;">files</td><td style="vertical-align:top;">:</td><td><div><table></table></div></td></tr><tr><td style="font-weight:bold;vertical-align:top;">flash</td><td style="vertical-align:top;">:</td><td><div></div></td></tr><tr><td style="font-weight:bold;vertical-align:top;">form_label_separator</td><td style="vertical-align:top;">:</td><td><div></div></td></tr><tr><td style="font-weight:bold;vertical-align:top;">formstyle</td><td style="vertical-align:top;">:</td><td><div>bootstrap3_inline</div></td></tr><tr><td style="font-weight:bold;vertical-align:top;">generic_patterns</td><td style="vertical-align:top;">:</td><td><div><table><tr><td><div>*</div></td></tr></table></div></td></tr><tr><td style="font-weight:bold;vertical-align:top;">google_analytics_id</td><td style="vertical-align:top;">:</td><td><div>None</div></td></tr><tr><td style="font-weight:bold;vertical-align:top;">headers</td><td style="vertical-align:top;">:</td><td><div><table><tr><td style="font-weight:bold;vertical-align:top;">X-Powered-By</td><td style="vertical-align:top;">:</td><td><div>web2py</div></td></tr></table></div></td></tr><tr><td style="font-weight:bold;vertical-align:top;">logo</td><td style="vertical-align:top;">:</td><td><div><a href="http://www.iiits.ac.in/" id="iiits-logo"><img height="55px" src="/welcome/static/iiits-logo.png" /></a></div></td></tr><tr><td style="font-weight:bold;vertical-align:top;">menu</td><td style="vertical-align:top;">:</td><td><div><table><tr><td><div><table><tr><td><div>Home</div></td></tr><tr><td><div>False</div></td></tr><tr><td><div>/welcome/default/index</div></td></tr><tr><td><div><table></table></div></td></tr></table></div></td></tr><tr><td><div><table><tr><td><div>Our Hostel</div></td></tr><tr><td><div>False</div></td></tr><tr><td><div>/welcome/default/Our Hostel</div></td></tr></table></div></td></tr><tr><td><div><table><tr><td><div>Hostel Committee</div></td></tr><tr><td><div>False</div></td></tr><tr><td><div>#</div></td></tr><tr><td><div><table><tr><td><div><table><tr><td><div>Design</div></td></tr><tr><td><div>False</div></td></tr><tr><td><div>/welcome/admin/default</div></td></tr></table></div></td></tr><tr><td><div><li class="divider"></li></div></td></tr><tr><td><div><table><tr><td><div>Room Changing/Swapping</div></td></tr><tr><td><div>False</div></td></tr><tr><td><div>/welcome/default/allotments</div></td></tr></table></div></td></tr><tr><td><div><table><tr><td><div>Room Partners</div></td></tr><tr><td><div>False</div></td></tr><tr><td><div>/welcome/default/partners</div></td></tr></table></div></td></tr><tr><td><div><table><tr><td><div>Hostel structure</div></td></tr><tr><td><div>False</div></td></tr><tr><td><div>/welcome/default/p5</div></td></tr></table></div></td></tr><tr><td><div><table><tr><td><div>Complaints and Suggestions</div></td></tr><tr><td><div>False</div></td></tr><tr><td><div>/welcome/default/p1</div></td></tr></table></div></td></tr><tr><td><div><table><tr><td><div>Images</div></td></tr><tr><td><div>False</div></td></tr><tr><td><div>/welcome/default/ak</div></td></tr></table></div></td></tr><tr><td><div><table><tr><td><div>Our Wiki</div></td></tr><tr><td><div>False</div></td></tr><tr><td><div>/welcome/default/wiki1</div></td></tr></table></div></td></tr><tr><td><div><table><tr><td><div>Our Discussion Forum</div></td></tr><tr><td><div>False</div></td></tr><tr><td><div>/welcome/default/dis</div></td></tr></table></div></td></tr><tr><td><div><table><tr><td><div>About</div></td></tr><tr><td><div>False</div></td></tr><tr><td><div>/welcome/default/about</div></td></tr></table></div></td></tr></table></div></td></tr></table></div></td></tr><tr><td><div><table><tr><td><div>All Management Databases and tables</div></td></tr><tr><td><div>False</div></td></tr><tr><td><div>/welcome/appadmin/index</div></td></tr></table></div></td></tr><tr><td><div><table><tr><td><div>Edit Website</div></td></tr><tr><td><div>False</div></td></tr><tr><td><div>/admin/default/site</div></td></tr></table></div></td></tr><tr><td><div><table><tr><td><div>Account</div></td></tr><tr><td><div>False</div></td></tr><tr><td><div>/welcome/default/account_details</div></td></tr></table></div></td></tr></table></div></td></tr><tr><td style="font-weight:bold;vertical-align:top;">meta</td><td style="vertical-align:top;">:</td><td><div><table><tr><td style="font-weight:bold;vertical-align:top;">author</td><td style="vertical-align:top;">:</td><td><div>Your Name &lt;you@example.com&gt;</div></td></tr><tr><td style="font-weight:bold;vertical-align:top;">description</td><td style="vertical-align:top;">:</td><td><div>a cool new portal</div></td></tr><tr><td style="font-weight:bold;vertical-align:top;">generator</td><td style="vertical-align:top;">:</td><td><div>Web2py Web Framework</div></td></tr><tr><td style="font-weight:bold;vertical-align:top;">keywords</td><td style="vertical-align:top;">:</td><td><div>web2py, python, framework</div></td></tr></table></div></td></tr><tr><td style="font-weight:bold;vertical-align:top;">models_to_run</td><td style="vertical-align:top;">:</td><td><div><table><tr><td><div>^\\w+\\.py$</div></td></tr><tr><td><div>^default/\\w+\\.py$</div></td></tr><tr><td><div>^default/changing/\\w+\\.py$</div></td></tr></table></div></td></tr><tr><td style="font-weight:bold;vertical-align:top;">postprocessing</td><td style="vertical-align:top;">:</td><td><div><table></table></div></td></tr><tr><td style="font-weight:bold;vertical-align:top;">session_client</td><td style="vertical-align:top;">:</td><td><div>127.0.0.1</div></td></tr><tr><td style="font-weight:bold;vertical-align:top;">session_cookie_compression_level</td><td style="vertical-align:top;">:</td><td><div>None</div></td></tr><tr><td style="font-weight:bold;vertical-align:top;">session_cookie_expires</td><td style="vertical-align:top;">:</td><td><div>None</div></td></tr><tr><td style="font-weight:bold;vertical-align:top;">session_cookie_key</td><td style="vertical-align:top;">:</td><td><div>None</div></td></tr><tr><td style="font-weight:bold;vertical-align:top;">session_data_name</td><td style="vertical-align:top;">:</td><td><div>session_data_welcome</div></td></tr><tr><td style="font-weight:bold;vertical-align:top;">session_file</td><td style="vertical-align:top;">:</td><td><div>&lt;open file &#x27;/home/akash/web2py/applications/welcome/sessions/07e/122/127.0.0.1-d3f91528-6f9d-4ada-87b7-0cc759ab566d&#x27;, mode &#x27;rb+&#x27; at 0xb5b227b0&gt;</div></td></tr><tr><td style="font-weight:bold;vertical-align:top;">session_filename</td><td style="vertical-align:top;">:</td><td><div>/home/akash/web2py/applications/welcome/sessions/127.0.0.1-d3f91528-6f9d-4ada-87b7-0cc759ab566d</div></td></tr><tr><td style="font-weight:bold;vertical-align:top;">session_hash</td><td style="vertical-align:top;">:</td><td><div>043c776725f786508579ce207d449189</div></td></tr><tr><td style="font-weight:bold;vertical-align:top;">session_id</td><td style="vertical-align:top;">:</td><td><div>127.0.0.1-d3f91528-6f9d-4ada-87b7-0cc759ab566d</div></td></tr><tr><td style="font-weight:bold;vertical-align:top;">session_id_name</td><td style="vertical-align:top;">:</td><td><div>session_id_welcome</div></td></tr><tr><td style="font-weight:bold;vertical-align:top;">session_locked</td><td style="vertical-align:top;">:</td><td><div>True</div></td></tr><tr><td style="font-weight:bold;vertical-align:top;">session_masterapp</td><td style="vertical-align:top;">:</td><td><div>welcome</div></td></tr><tr><td style="font-weight:bold;vertical-align:top;">session_new</td><td style="vertical-align:top;">:</td><td><div>False</div></td></tr><tr><td style="font-weight:bold;vertical-align:top;">session_storage_type</td><td style="vertical-align:top;">:</td><td><div>file</div></td></tr><tr><td style="font-weight:bold;vertical-align:top;">status</td><td style="vertical-align:top;">:</td><td><div>200</div></td></tr><tr><td style="font-weight:bold;vertical-align:top;">subtitle</td><td style="vertical-align:top;">:</td><td><div></div></td></tr><tr><td style="font-weight:bold;vertical-align:top;">title</td><td style="vertical-align:top;">:</td><td><div>Welcome</div></td></tr><tr><td style="font-weight:bold;vertical-align:top;">view</td><td style="vertical-align:top;">:</td><td><div>default/changing.html</div></td></tr></table></div>'
tRp322
sS'locals'
p323
(dp324
S'a'
S"('SELECT  room_change.id, room_change.who_want_to_...nge ORDER BY room_change.who_want_to_change_room;',)"
p325
sS'self'
p326
S'<pydal.adapters.sqlite.SQLiteAdapter object>'
p327
sS'b'
g21
sS'command'
p328
S"'SELECT  room_change.id, room_change.who_want_to_...nge ORDER BY room_change.who_want_to_change_room;'"
p329
sS't0'
p330
S'1442591738.680263'
p331
sssS'traceback'
p332
S'Traceback (most recent call last):\n  File "/home/akash/web2py/gluon/restricted.py", line 227, in restricted\n    exec ccode in environment\n  File "/home/akash/web2py/applications/welcome/controllers/default.py", line 156, in <module>\n  File "/home/akash/web2py/gluon/globals.py", line 412, in <lambda>\n    self._caller = lambda f: f()\n  File "/home/akash/web2py/gluon/tools.py", line 3774, in f\n    return action(*a, **b)\n  File "/home/akash/web2py/applications/welcome/controllers/default.py", line 59, in changing\n    changes=db().select(db.room_change.ALL,orderby=db.room_change.who_want_to_change_room)\n  File "/home/akash/web2py/gluon/packages/dal/pydal/objects.py", line 2002, in select\n    return adapter.select(self.query,fields,attributes)\n  File "/home/akash/web2py/gluon/packages/dal/pydal/adapters/sqlite.py", line 122, in select\n    return super(SQLiteAdapter, self).select(query, fields, attributes)\n  File "/home/akash/web2py/gluon/packages/dal/pydal/adapters/base.py", line 1286, in select\n    return self._select_aux(sql,fields,attributes)\n  File "/home/akash/web2py/gluon/packages/dal/pydal/adapters/base.py", line 1243, in _select_aux\n    self.execute(sql)\n  File "/home/akash/web2py/gluon/packages/dal/pydal/adapters/base.py", line 1378, in execute\n    return self.log_execute(*a, **b)\n  File "/home/akash/web2py/gluon/packages/dal/pydal/adapters/base.py", line 1372, in log_execute\n    ret = self.cursor.execute(command, *a[1:], **b)\nOperationalError: no such table: room_change\n'
p333
s.