(dp1
S'output'
p2
S"<class 'sqlite3.OperationalError'> no such column: auth_user.which_hostel"
p3
sS'layer'
p4
S'/home/akash/web2py/applications/welcome/controllers/default.py'
p5
sS'code'
p6
S'# -*- coding: utf-8 -*-\n# this file is released under public domain and you can use without limitations\n\n#########################################################################\n## This is a sample controller\n## - index is the default action of any application\n## - user is required for authentication and authorization\n## - download is for downloading files uploaded in the db (does streaming)\n#########################################################################\n\ndef index():\n    """\n    example action using the internationalization operator T and flash\n    rendered by views/default/index.html or views/generic.html\n\n    if you need a simple wiki simply replace the two lines below with:\n    return auth.wiki()\n    """\n#    if not session.counter:\n   #     session.counter=1\n    session.counter=(session.counter or 0)+1\n    response.flash = T("Welcome")\n    y={}\n    y[\'title\']=[]\n    count=0\n    for row in db(db.notice_board.notice_board_priority<=5).select(orderby=db.notice_board.notice_board_priority):\n        count+=1\n        x=row.notice\n        if count<=5:\n            y[\'title\'].append(x)\n        else :\n            y[\'title\'][count-6]=x\n            #count=5\n    return dict(message="Welcome to Our Hostel Management Portal!",counter=session.counter,y=y)\n#@auth.requires_permission(\'read\',\'person\')\n\ndef first():\n    if request.vars.visitor_name:\n        session.visitor_name=request.vars.visitor_name\n        redirect(URL(\'second\'))\n    return dict()\n\ndef second():\n    return dict()\n\n@auth.requires_login()\ndef p1():\n        return dict()\n\ndef p2():\n        return dict()\n\ndef p3():\n        return dict()\n\ndef p4():\n        return dict()\n\n@auth.requires_login()\ndef ak():\n    form = SQLFORM(db.image,user_signature=True).process()\n    images = db().select(db.image.ALL, orderby=db.image.title)\n    return locals()\n\n@auth.requires_login()\ndef dis():\n    form = SQLFORM(db.db_topic).process()\n    get_db_topics = db().select(db.db_topic.ALL, orderby=db.db_topic.topic_title)\n    return locals()\n\n@auth.requires_login()\ndef complain():\n    form = SQLFORM(db.complaintregister).process()\n    complaints = db().select(db.complaintregister.ALL,orderby=db.complaintregister.complain_title)\n    return locals()\n\n@auth.requires_login()\ndef changing():\n    form=SQLFORM(db.change_rooms).process()\n    changes=db().select(db.change_rooms.ALL,orderby=db.change_rooms.name_of_room_changer)\n    return locals()\n\n@auth.requires_login()\ndef show_complain():\n    complaintregister = db.complaintregister(request.args(0,cast=int)) or redirect(URL(\'index\'))\n    db.complainpost.complain_id.default = complaintregister.id\n    form=SQLFORM(db.complainpost)\n    if form.process().accepted:\n        response.flash=\'your complaint is posted\'\n    comments = db(db.complainpost.complain_id==complaintregister.id).select()\n    return locals()\n\n@auth.requires_login()\ndef show2():\n    db_topic = db.db_topic(request.args(0,cast=int)) or redirect(URL(\'index\'))\n    db.db_post.discussion_id.default = db_topic.id\n    form=SQLFORM(db.db_post)\n    if form.process().accepted:\n        response.flash=\'your comment is posted\'\n    comments = db(db.db_post.discussion_id==db_topic.id).select()\n    return dict(form=form, comments=comments, db_topic=db_topic)\n\n@auth.requires_login()\ndef show():\n    image = db.image(request.args(0,cast=int)) or redirect(URL(\'index\'))\n    db.post.image_id.default = image.id\n    form = SQLFORM(db.post)\n    if form.process().accepted:\n        response.flash = \'Your comment is posted\'\n    comments = db(db.post.image_id==image.id).select()\n    #return dict(image=image, comments=comments, form=form)\n    return locals()\n\ndef download():\n    return response.download(request, db)\n\ndef show3():\n    change_rooms=db.change_rooms(request.args(0,cast=int)) or redirect(URL(\'index\'))\n    #change_rooms = db.change_rooms(request.args(0,cast=int)) or redirect(URL(\'index\'))\n    db.ch.change_rooms_id.default=change_rooms.id\n#    name=db.change_rooms(change_rooms_id).name_of_room_changer\n    return dict(change_rooms=change_rooms)\n\ndef account_details():\n    #name=db.auth_user.first_name\n    if auth.is_logged_in():\n        account_type=db.auth_user(auth.user_id).type_of_account\n        account_name=db.auth_user(auth.user_id).first_name\n        account_lastname=db.auth_user(auth.user_id).last_name\n        account_admission_number=db.auth_user(auth.user_id).admission_number\n        account_email=db.auth_user(auth.user_id).email\n        account_room_number=db.auth_user(auth.user_id).room_number\n        account_room_partner=db.auth_user(auth.user_id).room_partner\n    return dict(account_type=account_type,account_name=account_name,account_lastname=account_lastname,account_admission_number=account_admission_number,account_email=account_email,account_room_number=account_room_number,account_room_partner=account_room_partner)\n\ndef display_form():\n    form=FORM(\'Your name:\',\n              INPUT(_name=\'name\',requires=IS_NOT_EMPTY()),\n              INPUT(_type=\'submit\'))\n    if form.accepts(request,session):\n        response.flash=\'form accepted\'\n    elif form.errors:\n        response.flash=\'form has errors\'\n    else:\n        response.flash=\'please fill the form\'\n    return dict(form=form)\n\ndef user():\n    """\n    exposes:\n    http://..../[app]/default/user/login\n    http://..../[app]/default/user/logout\n    http://..../[app]/default/user/register\n    http://..../[app]/default/user/profile\n    http://..../[app]/default/user/retrieve_password\n    http://..../[app]/default/user/change_password\n    http://..../[app]/default/user/manage_users (requires membership in\n    http://..../[app]/default/user/bulk_register\n    use @auth.requires_login()\n        @auth.requires_membership(\'group name\')\n        @auth.requires_permission(\'read\',\'table name\',record_id)\n    to decorate functions that need access control\n    """\n    if request.args(0)==\'profile\':\n        db.auth_user.type_of_account.writable=False\n        db.auth_user.registration_key.readable=db.auth_user.registration_key.writable=False\n        #db.auth.settings.remember_me_form.readable=db.auth.settings.remember_me_form.writable=False\n    return dict(form=auth())\n\n@auth.requires_membership(\'manager\')\ndef manage():\n    grid = SQLFORM.smartgrid(db.image,linked_tabled=[\'post\'])\n    return dict(grid=grid)\n\'\'\'@cache.action()\ndef download():\n    """\n    allows downloading of uploaded files\n    http://..../[app]/default/download/[filename]\n    """\n    return response.download(request, db)\n\'\'\'\n\ndef wiki1():\n    return auth.wiki()\n\ndef call():\n    """\n    exposes services. for example:\n    http://..../[app]/default/call/jsonrpc\n    decorate with @services.jsonrpc the functions to expose\n    supports xml, json, xmlrpc, jsonrpc, amfrpc, rss, csv\n    """\n    return service()\n@auth.requires_login()\ndef contacts():\n    grid=SQLFORM.grid(db.contact,user_signature=True)\n    #db.contact.csv.readable=db.contact.csv.writable=False\n    if auth.is_logged_in() and db.auth_user(auth.user_id).type_of_account=="Hostel Committee":\n        return dict(grid1=grid)\ndef contactlist():\n    y={}\n    y[\'name\']=[]\n    y[\'no\']=[]\n    for row in db(db.contact._id>0).select():\n        x=row.name\n        y[\'name\'].append(x)\n        z=row.phone\n        y[\'no\'].append(z)\n    return dict(y=y) \ndef list():\n    #if auth.is_logged_in() and db.auth_user(auth.user_id).type_of_account==\'Super Admin\':\n    y={}\n    y[\'name\']=[]\n    y[\'room_partner_name\']=[]\n    y[\'serial\']=[]\n    for row in db(db.room_partner_list._id>0).select():\n        x=row.room_partner_list_name\n        y[\'name\'].append(x)\n        z=row.room_partner_name\n        y[\'room_partner_name\'].append(z)\n        u=row.serial_number\n        y[\'serial\'].append(u)\n    return dict(y=y)\n\ndef notice():\n    form=SQLFORM(db.notice_board).process()\n    if form.accepted:\n        response.flash= \'Notice Uploaded\'\n    return dict(form=form)\n\ndef seelist():\n    return dict()\n\ndef tell_outcome():\n    complaintregister = db.complaintregister(request.args(0,cast=int)) or redirect(URL(\'index\'))\n    db.tell_outcome.complain_id.default = complaintregister.id\n    if db.auth_user(auth.user_id).type_of_account=="Hostel Committee":\n        form=SQLFORM(db.tell_outcome).process()\n        if form.accepted:\n            response.flash = \'Outcome Given\'\n        return dict(form=form)\n    if auth.is_logged_in() and db.auth_user(auth.user_id).type_of_account=="Student":\n        result=db.tell_outcome(db.tell_outcome.complain_id==complaintregister.id)\n        out=result.problem_outcome\n        return dict(out=out)\n\n\ndef leave():\n    form=SQLFORM(db.leave_application).process\n    if form.accepted:\n        response.flash("Leave Submitted")\n    else:\n        response.flash("Leave Not Submitted")\n    return dict(form=form)\n\'\'\'def see_outcome():\n    if auth.is_logged_in() and db.auth(auth.user_id).type_of_account=="Student":\n        n=db(db.tell_outcome._id>0).select()\n        result=db.tell_outcome.problem_outcome\n        return dict(result=result,n=n)\n\'\'\'\n\nresponse._vars=response._caller(user)\n'
p7
sS'snapshot'
p8
(dp9
S'exception'
p10
(dp11
S'__module__'
p12
S"'sqlite3'"
p13
sS'__getslice__'
p14
S"<method-wrapper '__getslice__' of OperationalError object>"
p15
sS'__str__'
p16
S"<method-wrapper '__str__' of OperationalError object>"
p17
sS'__reduce__'
p18
S'<built-in method __reduce__ of OperationalError object>'
p19
sS'__dict__'
p20
S'{}'
p21
sS'__sizeof__'
p22
S'<built-in method __sizeof__ of OperationalError object>'
p23
sS'__weakref__'
p24
S'None'
p25
sS'__init__'
p26
S"<method-wrapper '__init__' of OperationalError object>"
p27
sS'__setattr__'
p28
S"<method-wrapper '__setattr__' of OperationalError object>"
p29
sS'__reduce_ex__'
p30
S'<built-in method __reduce_ex__ of OperationalError object>'
p31
sS'__new__'
p32
S'<built-in method __new__ of type object>'
p33
sS'__format__'
p34
S'<built-in method __format__ of OperationalError object>'
p35
sS'__class__'
p36
S"<class 'sqlite3.OperationalError'>"
p37
sS'__doc__'
p38
S'None'
p39
sS'__getitem__'
p40
S"<method-wrapper '__getitem__' of OperationalError object>"
p41
sS'__setstate__'
p42
S'<built-in method __setstate__ of OperationalError object>'
p43
sS'__getattribute__'
p44
S"<method-wrapper '__getattribute__' of OperationalError object>"
p45
sS'args'
p46
S"('no such column: auth_user.which_hostel',)"
p47
sS'__subclasshook__'
p48
S'<built-in method __subclasshook__ of type object>'
p49
sS'__unicode__'
p50
S'<built-in method __unicode__ of OperationalError object>'
p51
sS'__delattr__'
p52
S"<method-wrapper '__delattr__' of OperationalError object>"
p53
sS'__repr__'
p54
S"<method-wrapper '__repr__' of OperationalError object>"
p55
sS'__hash__'
p56
S"<method-wrapper '__hash__' of OperationalError object>"
p57
ssS'evalue'
p58
S'no such column: auth_user.which_hostel'
p59
sS'request'
p60
cgluon.html
XML_unpickle
p61
(S's*Z\x00\x00<div><table><tr><td style="font-weight:bold;vertical-align:top;">ajax</td><td style="vertical-align:top;">:</td><td><div>False</div></td></tr><tr><td style="font-weight:bold;vertical-align:top;">application</td><td style="vertical-align:top;">:</td><td><div>welcome</div></td></tr><tr><td style="font-weight:bold;vertical-align:top;">args</td><td style="vertical-align:top;">:</td><td><div><table><tr><td><div>login</div></td></tr></table></div></td></tr><tr><td style="font-weight:bold;vertical-align:top;">cid</td><td style="vertical-align:top;">:</td><td><div>None</div></td></tr><tr><td style="font-weight:bold;vertical-align:top;">client</td><td style="vertical-align:top;">:</td><td><div>127.0.0.1</div></td></tr><tr><td style="font-weight:bold;vertical-align:top;">controller</td><td style="vertical-align:top;">:</td><td><div>default</div></td></tr><tr><td style="font-weight:bold;vertical-align:top;">cookies</td><td style="vertical-align:top;">:</td><td><div><table><tr><td style="font-weight:bold;vertical-align:top;">session_id_admin</td><td style="vertical-align:top;">:</td><td><div>127.0.0.1-95e86d92-8c42-4add-a60c-91c320e85d1d<table><tr><td style="font-weight:bold;vertical-align:top;">comment</td><td style="vertical-align:top;">:</td><td><div></div></td></tr><tr><td style="font-weight:bold;vertical-align:top;">domain</td><td style="vertical-align:top;">:</td><td><div></div></td></tr><tr><td style="font-weight:bold;vertical-align:top;">expires</td><td style="vertical-align:top;">:</td><td><div></div></td></tr><tr><td style="font-weight:bold;vertical-align:top;">httponly</td><td style="vertical-align:top;">:</td><td><div></div></td></tr><tr><td style="font-weight:bold;vertical-align:top;">max-age</td><td style="vertical-align:top;">:</td><td><div></div></td></tr><tr><td style="font-weight:bold;vertical-align:top;">path</td><td style="vertical-align:top;">:</td><td><div></div></td></tr><tr><td style="font-weight:bold;vertical-align:top;">secure</td><td style="vertical-align:top;">:</td><td><div></div></td></tr><tr><td style="font-weight:bold;vertical-align:top;">version</td><td style="vertical-align:top;">:</td><td><div></div></td></tr></table></div></td></tr><tr><td style="font-weight:bold;vertical-align:top;">session_id_welcome</td><td style="vertical-align:top;">:</td><td><div>127.0.0.1-8a6ce39b-c690-4f4f-b134-a982ed0bdfa0<table><tr><td style="font-weight:bold;vertical-align:top;">comment</td><td style="vertical-align:top;">:</td><td><div></div></td></tr><tr><td style="font-weight:bold;vertical-align:top;">domain</td><td style="vertical-align:top;">:</td><td><div></div></td></tr><tr><td style="font-weight:bold;vertical-align:top;">expires</td><td style="vertical-align:top;">:</td><td><div></div></td></tr><tr><td style="font-weight:bold;vertical-align:top;">httponly</td><td style="vertical-align:top;">:</td><td><div></div></td></tr><tr><td style="font-weight:bold;vertical-align:top;">max-age</td><td style="vertical-align:top;">:</td><td><div></div></td></tr><tr><td style="font-weight:bold;vertical-align:top;">path</td><td style="vertical-align:top;">:</td><td><div></div></td></tr><tr><td style="font-weight:bold;vertical-align:top;">secure</td><td style="vertical-align:top;">:</td><td><div></div></td></tr><tr><td style="font-weight:bold;vertical-align:top;">version</td><td style="vertical-align:top;">:</td><td><div></div></td></tr></table></div></td></tr></table></div></td></tr><tr><td style="font-weight:bold;vertical-align:top;">env</td><td style="vertical-align:top;">:</td><td><div><table><tr><td style="font-weight:bold;vertical-align:top;">CONTENT_LENGTH</td><td style="vertical-align:top;">:</td><td><div>717</div></td></tr><tr><td style="font-weight:bold;vertical-align:top;">CONTENT_TYPE</td><td style="vertical-align:top;">:</td><td><div>multipart/form-data; boundary=---------------------------147315092313105981132073171795</div></td></tr><tr><td style="font-weight:bold;vertical-align:top;">HTTP_ACCEPT</td><td style="vertical-align:top;">:</td><td><div>text/html,application/xhtml+xml,application/xml;q=0.9,*/*;q=0.8</div></td></tr><tr><td style="font-weight:bold;vertical-align:top;">HTTP_ACCEPT_ENCODING</td><td style="vertical-align:top;">:</td><td><div>gzip, deflate</div></td></tr><tr><td style="font-weight:bold;vertical-align:top;">HTTP_ACCEPT_LANGUAGE</td><td style="vertical-align:top;">:</td><td><div>en-US,en;q=0.5</div></td></tr><tr><td style="font-weight:bold;vertical-align:top;">HTTP_CONNECTION</td><td style="vertical-align:top;">:</td><td><div>keep-alive</div></td></tr><tr><td style="font-weight:bold;vertical-align:top;">HTTP_CONTENT_LENGTH</td><td style="vertical-align:top;">:</td><td><div>717</div></td></tr><tr><td style="font-weight:bold;vertical-align:top;">HTTP_CONTENT_TYPE</td><td style="vertical-align:top;">:</td><td><div>multipart/form-data; boundary=---------------------------147315092313105981132073171795</div></td></tr><tr><td style="font-weight:bold;vertical-align:top;">HTTP_COOKIE</td><td style="vertical-align:top;">:</td><td><div>session_id_welcome=127.0.0.1-8a6ce39b-c690-4f4f-b134-a982ed0bdfa0; session_id_admin=127.0.0.1-95e86d92-8c42-4add-a60c-91c320e85d1d</div></td></tr><tr><td style="font-weight:bold;vertical-align:top;">HTTP_HOST</td><td style="vertical-align:top;">:</td><td><div>127.0.0.1:8000</div></td></tr><tr><td style="font-weight:bold;vertical-align:top;">HTTP_REFERER</td><td style="vertical-align:top;">:</td><td><div>http://127.0.0.1:8000/welcome/default/user/login</div></td></tr><tr><td style="font-weight:bold;vertical-align:top;">HTTP_USER_AGENT</td><td style="vertical-align:top;">:</td><td><div>Mozilla/5.0 (X11; Ubuntu; Linux i686; rv:39.0) Gecko/20100101 Firefox/39.0</div></td></tr><tr><td style="font-weight:bold;vertical-align:top;">PATH_INFO</td><td style="vertical-align:top;">:</td><td><div>/welcome/default/user/login</div></td></tr><tr><td style="font-weight:bold;vertical-align:top;">QUERY_STRING</td><td style="vertical-align:top;">:</td><td><div></div></td></tr><tr><td style="font-weight:bold;vertical-align:top;">REMOTE_ADDR</td><td style="vertical-align:top;">:</td><td><div>127.0.0.1</div></td></tr><tr><td style="font-weight:bold;vertical-align:top;">REMOTE_PORT</td><td style="vertical-align:top;">:</td><td><div>33709</div></td></tr><tr><td style="font-weight:bold;vertical-align:top;">REQUEST_METHOD</td><td style="vertical-align:top;">:</td><td><div>POST</div></td></tr><tr><td style="font-weight:bold;vertical-align:top;">SCRIPT_NAME</td><td style="vertical-align:top;">:</td><td><div></div></td></tr><tr><td style="font-weight:bold;vertical-align:top;">SERVER_NAME</td><td style="vertical-align:top;">:</td><td><div>ThePrototype</div></td></tr><tr><td style="font-weight:bold;vertical-align:top;">SERVER_PORT</td><td style="vertical-align:top;">:</td><td><div>8000</div></td></tr><tr><td style="font-weight:bold;vertical-align:top;">SERVER_PROTOCOL</td><td style="vertical-align:top;">:</td><td><div>HTTP/1.1</div></td></tr><tr><td style="font-weight:bold;vertical-align:top;">SERVER_SOFTWARE</td><td style="vertical-align:top;">:</td><td><div>Rocket 1.2.6</div></td></tr><tr><td style="font-weight:bold;vertical-align:top;">app_folders</td><td style="vertical-align:top;">:</td><td><div>set([&#x27;/home/akash/web2py/applications/admin/&#x27;, &#x27;/home/akash/web2py/applications/welcome/&#x27;])</div></td></tr><tr><td style="font-weight:bold;vertical-align:top;">applications_parent</td><td style="vertical-align:top;">:</td><td><div>/home/akash/web2py</div></td></tr><tr><td style="font-weight:bold;vertical-align:top;">cmd_args</td><td style="vertical-align:top;">:</td><td><div><table></table></div></td></tr><tr><td style="font-weight:bold;vertical-align:top;">cmd_options</td><td style="vertical-align:top;">:</td><td><div>&lt;Values at 0xb5aea1ac: {&#x27;verbose&#x27;: False, &#x27;ip&#x27;: &#x27;127.0.0.1&#x27;, &#x27;debuglevel&#x27;: 30, &#x27;with_scheduler&#x27;: False, &#x27;ips&#x27;: [&#x27;127.0.1.1&#x27;], &#x27;shutdown_timeout&#x27;: 5, &#x27;taskbar&#x27;: False, &#x27;with_coverage&#x27;: False, &#x27;scheduler_groups&#x27;: None, &#x27;port&#x27;: 8000, &#x27;maxthreads&#x27;: None, &#x27;softcron&#x27;: False, &#x27;server_name&#x27;: &#x27;ThePrototype&#x27;, &#x27;bpython&#x27;: False, &#x27;nogui&#x27;: False, &#x27;pid_filename&#x27;: &#x27;httpserver.pid&#x27;, &#x27;print_errors&#x27;: False, &#x27;extcron&#x27;: False, &#x27;runcron&#x27;: False, &#x27;run_system_tests&#x27;: False, &#x27;test&#x27;: None, &#x27;folder&#x27;: &#x27;/home/akash/web2py&#x27;, &#x27;config&#x27;: &#x27;&#x27;, &#x27;minthreads&#x27;: None, &#x27;shell&#x27;: None, &#x27;run&#x27;: &#x27;&#x27;, &#x27;log_filename&#x27;: &#x27;httpserver.log&#x27;, &#x27;profiler_dir&#x27;: None, &#x27;args&#x27;: [&#x27;&#x27;], &#x27;socket_timeout&#x27;: 5, &#x27;ssl_ca_certificate&#x27;: None, &#x27;scheduler&#x27;: None, &#x27;interfaces&#x27;: None, &#x27;ssl_private_key&#x27;: &#x27;&#x27;, &#x27;gae&#x27;: None, &#x27;password&#x27;: &#x27;&lt;ask&gt;&#x27;, &#x27;request_queue_size&#x27;: 5, &#x27;ssl_certificate&#x27;: &#x27;&#x27;, &#x27;cronjob&#x27;: False, &#x27;numthreads&#x27;: None, &#x27;quiet&#x27;: False, &#x27;import_models&#x27;: False, &#x27;timeout&#x27;: 10, &#x27;plain&#x27;: False, &#x27;nobanner&#x27;: False}&gt;</div></td></tr><tr><td style="font-weight:bold;vertical-align:top;">content_length</td><td style="vertical-align:top;">:</td><td><div>717</div></td></tr><tr><td style="font-weight:bold;vertical-align:top;">content_type</td><td style="vertical-align:top;">:</td><td><div>multipart/form-data; boundary=---------------------------147315092313105981132073171795</div></td></tr><tr><td style="font-weight:bold;vertical-align:top;">db_sessions</td><td style="vertical-align:top;">:</td><td><div>set([])</div></td></tr><tr><td style="font-weight:bold;vertical-align:top;">debugging</td><td style="vertical-align:top;">:</td><td><div>True</div></td></tr><tr><td style="font-weight:bold;vertical-align:top;">gluon_parent</td><td style="vertical-align:top;">:</td><td><div>/home/akash/web2py</div></td></tr><tr><td style="font-weight:bold;vertical-align:top;">http_accept</td><td style="vertical-align:top;">:</td><td><div>text/html,application/xhtml+xml,application/xml;q=0.9,*/*;q=0.8</div></td></tr><tr><td style="font-weight:bold;vertical-align:top;">http_accept_encoding</td><td style="vertical-align:top;">:</td><td><div>gzip, deflate</div></td></tr><tr><td style="font-weight:bold;vertical-align:top;">http_accept_language</td><td style="vertical-align:top;">:</td><td><div>en-US,en;q=0.5</div></td></tr><tr><td style="font-weight:bold;vertical-align:top;">http_connection</td><td style="vertical-align:top;">:</td><td><div>keep-alive</div></td></tr><tr><td style="font-weight:bold;vertical-align:top;">http_content_length</td><td style="vertical-align:top;">:</td><td><div>717</div></td></tr><tr><td style="font-weight:bold;vertical-align:top;">http_content_type</td><td style="vertical-align:top;">:</td><td><div>multipart/form-data; boundary=---------------------------147315092313105981132073171795</div></td></tr><tr><td style="font-weight:bold;vertical-align:top;">http_cookie</td><td style="vertical-align:top;">:</td><td><div>session_id_welcome=127.0.0.1-8a6ce39b-c690-4f4f-b134-a982ed0bdfa0; session_id_admin=127.0.0.1-95e86d92-8c42-4add-a60c-91c320e85d1d</div></td></tr><tr><td style="font-weight:bold;vertical-align:top;">http_host</td><td style="vertical-align:top;">:</td><td><div>127.0.0.1:8000</div></td></tr><tr><td style="font-weight:bold;vertical-align:top;">http_referer</td><td style="vertical-align:top;">:</td><td><div>http://127.0.0.1:8000/welcome/default/user/login</div></td></tr><tr><td style="font-weight:bold;vertical-align:top;">http_user_agent</td><td style="vertical-align:top;">:</td><td><div>Mozilla/5.0 (X11; Ubuntu; Linux i686; rv:39.0) Gecko/20100101 Firefox/39.0</div></td></tr><tr><td style="font-weight:bold;vertical-align:top;">is_jython</td><td style="vertical-align:top;">:</td><td><div>False</div></td></tr><tr><td style="font-weight:bold;vertical-align:top;">is_pypy</td><td style="vertical-align:top;">:</td><td><div>False</div></td></tr><tr><td style="font-weight:bold;vertical-align:top;">is_source</td><td style="vertical-align:top;">:</td><td><div>True</div></td></tr><tr><td style="font-weight:bold;vertical-align:top;">local_hosts</td><td style="vertical-align:top;">:</td><td><div><table><tr><td><div>ThePrototype</div></td></tr><tr><td><div>::1</div></td></tr><tr><td><div>127.0.1.1</div></td></tr><tr><td><div>::ffff:127.0.0.1</div></td></tr><tr><td><div>127.0.0.1</div></td></tr></table></div></td></tr><tr><td style="font-weight:bold;vertical-align:top;">path_info</td><td style="vertical-align:top;">:</td><td><div>/welcome/default/user/login</div></td></tr><tr><td style="font-weight:bold;vertical-align:top;">query_string</td><td style="vertical-align:top;">:</td><td><div></div></td></tr><tr><td style="font-weight:bold;vertical-align:top;">remote_addr</td><td style="vertical-align:top;">:</td><td><div>127.0.0.1</div></td></tr><tr><td style="font-weight:bold;vertical-align:top;">remote_port</td><td style="vertical-align:top;">:</td><td><div>33709</div></td></tr><tr><td style="font-weight:bold;vertical-align:top;">request_method</td><td style="vertical-align:top;">:</td><td><div>POST</div></td></tr><tr><td style="font-weight:bold;vertical-align:top;">request_uri</td><td style="vertical-align:top;">:</td><td><div>/welcome/default/user/login</div></td></tr><tr><td style="font-weight:bold;vertical-align:top;">script_name</td><td style="vertical-align:top;">:</td><td><div></div></td></tr><tr><td style="font-weight:bold;vertical-align:top;">server_name</td><td style="vertical-align:top;">:</td><td><div>ThePrototype</div></td></tr><tr><td style="font-weight:bold;vertical-align:top;">server_port</td><td style="vertical-align:top;">:</td><td><div>8000</div></td></tr><tr><td style="font-weight:bold;vertical-align:top;">server_protocol</td><td style="vertical-align:top;">:</td><td><div>HTTP/1.1</div></td></tr><tr><td style="font-weight:bold;vertical-align:top;">server_software</td><td style="vertical-align:top;">:</td><td><div>Rocket 1.2.6</div></td></tr><tr><td style="font-weight:bold;vertical-align:top;">web2py_path</td><td style="vertical-align:top;">:</td><td><div>/home/akash/web2py</div></td></tr><tr><td style="font-weight:bold;vertical-align:top;">web2py_version</td><td style="vertical-align:top;">:</td><td><div>2.12.3-stable+timestamp.2015.08.19.00.18.03</div></td></tr><tr><td style="font-weight:bold;vertical-align:top;">wsgi.errors</td><td style="vertical-align:top;">:</td><td><div>&lt;open file &#x27;&lt;stderr&gt;&#x27;, mode &#x27;w&#x27; at 0xb753b0d0&gt;</div></td></tr><tr><td style="font-weight:bold;vertical-align:top;">wsgi.file_wrapper</td><td style="vertical-align:top;">:</td><td><div>&lt;class wsgiref.util.FileWrapper at 0xb5b1f3ec&gt;</div></td></tr><tr><td style="font-weight:bold;vertical-align:top;">wsgi.input</td><td style="vertical-align:top;">:</td><td><div>&lt;socket._fileobject object at 0xad2f2cec&gt;</div></td></tr><tr><td style="font-weight:bold;vertical-align:top;">wsgi.multiprocess</td><td style="vertical-align:top;">:</td><td><div>False</div></td></tr><tr><td style="font-weight:bold;vertical-align:top;">wsgi.multithread</td><td style="vertical-align:top;">:</td><td><div>True</div></td></tr><tr><td style="font-weight:bold;vertical-align:top;">wsgi.run_once</td><td style="vertical-align:top;">:</td><td><div>False</div></td></tr><tr><td style="font-weight:bold;vertical-align:top;">wsgi.url_scheme</td><td style="vertical-align:top;">:</td><td><div>http</div></td></tr><tr><td style="font-weight:bold;vertical-align:top;">wsgi.version</td><td style="vertical-align:top;">:</td><td><div><table><tr><td><div>1</div></td></tr><tr><td><div>0</div></td></tr></table></div></td></tr><tr><td style="font-weight:bold;vertical-align:top;">wsgi_errors</td><td style="vertical-align:top;">:</td><td><div>&lt;open file &#x27;&lt;stderr&gt;&#x27;, mode &#x27;w&#x27; at 0xb753b0d0&gt;</div></td></tr><tr><td style="font-weight:bold;vertical-align:top;">wsgi_file_wrapper</td><td style="vertical-align:top;">:</td><td><div>&lt;class wsgiref.util.FileWrapper at 0xb5b1f3ec&gt;</div></td></tr><tr><td style="font-weight:bold;vertical-align:top;">wsgi_input</td><td style="vertical-align:top;">:</td><td><div>&lt;socket._fileobject object at 0xad2f2cec&gt;</div></td></tr><tr><td style="font-weight:bold;vertical-align:top;">wsgi_multiprocess</td><td style="vertical-align:top;">:</td><td><div>False</div></td></tr><tr><td style="font-weight:bold;vertical-align:top;">wsgi_multithread</td><td style="vertical-align:top;">:</td><td><div>True</div></td></tr><tr><td style="font-weight:bold;vertical-align:top;">wsgi_run_once</td><td style="vertical-align:top;">:</td><td><div>False</div></td></tr><tr><td style="font-weight:bold;vertical-align:top;">wsgi_url_scheme</td><td style="vertical-align:top;">:</td><td><div>http</div></td></tr><tr><td style="font-weight:bold;vertical-align:top;">wsgi_version</td><td style="vertical-align:top;">:</td><td><div><table><tr><td><div>1</div></td></tr><tr><td><div>0</div></td></tr></table></div></td></tr></table></div></td></tr><tr><td style="font-weight:bold;vertical-align:top;">extension</td><td style="vertical-align:top;">:</td><td><div>html</div></td></tr><tr><td style="font-weight:bold;vertical-align:top;">folder</td><td style="vertical-align:top;">:</td><td><div>/home/akash/web2py/applications/welcome/</div></td></tr><tr><td style="font-weight:bold;vertical-align:top;">function</td><td style="vertical-align:top;">:</td><td><div>user</div></td></tr><tr><td style="font-weight:bold;vertical-align:top;">global_settings</td><td style="vertical-align:top;">:</td><td><div><table><tr><td style="font-weight:bold;vertical-align:top;">app_folders</td><td style="vertical-align:top;">:</td><td><div>set([&#x27;/home/akash/web2py/applications/admin/&#x27;, &#x27;/home/akash/web2py/applications/welcome/&#x27;])</div></td></tr><tr><td style="font-weight:bold;vertical-align:top;">applications_parent</td><td style="vertical-align:top;">:</td><td><div>/home/akash/web2py</div></td></tr><tr><td style="font-weight:bold;vertical-align:top;">cmd_args</td><td style="vertical-align:top;">:</td><td><div><table></table></div></td></tr><tr><td style="font-weight:bold;vertical-align:top;">cmd_options</td><td style="vertical-align:top;">:</td><td><div>&lt;Values at 0xb5aea1ac: {&#x27;verbose&#x27;: False, &#x27;ip&#x27;: &#x27;127.0.0.1&#x27;, &#x27;debuglevel&#x27;: 30, &#x27;with_scheduler&#x27;: False, &#x27;ips&#x27;: [&#x27;127.0.1.1&#x27;], &#x27;shutdown_timeout&#x27;: 5, &#x27;taskbar&#x27;: False, &#x27;with_coverage&#x27;: False, &#x27;scheduler_groups&#x27;: None, &#x27;port&#x27;: 8000, &#x27;maxthreads&#x27;: None, &#x27;softcron&#x27;: False, &#x27;server_name&#x27;: &#x27;ThePrototype&#x27;, &#x27;bpython&#x27;: False, &#x27;nogui&#x27;: False, &#x27;pid_filename&#x27;: &#x27;httpserver.pid&#x27;, &#x27;print_errors&#x27;: False, &#x27;extcron&#x27;: False, &#x27;runcron&#x27;: False, &#x27;run_system_tests&#x27;: False, &#x27;test&#x27;: None, &#x27;folder&#x27;: &#x27;/home/akash/web2py&#x27;, &#x27;config&#x27;: &#x27;&#x27;, &#x27;minthreads&#x27;: None, &#x27;shell&#x27;: None, &#x27;run&#x27;: &#x27;&#x27;, &#x27;log_filename&#x27;: &#x27;httpserver.log&#x27;, &#x27;profiler_dir&#x27;: None, &#x27;args&#x27;: [&#x27;&#x27;], &#x27;socket_timeout&#x27;: 5, &#x27;ssl_ca_certificate&#x27;: None, &#x27;scheduler&#x27;: None, &#x27;interfaces&#x27;: None, &#x27;ssl_private_key&#x27;: &#x27;&#x27;, &#x27;gae&#x27;: None, &#x27;password&#x27;: &#x27;&lt;ask&gt;&#x27;, &#x27;request_queue_size&#x27;: 5, &#x27;ssl_certificate&#x27;: &#x27;&#x27;, &#x27;cronjob&#x27;: False, &#x27;numthreads&#x27;: None, &#x27;quiet&#x27;: False, &#x27;import_models&#x27;: False, &#x27;timeout&#x27;: 10, &#x27;plain&#x27;: False, &#x27;nobanner&#x27;: False}&gt;</div></td></tr><tr><td style="font-weight:bold;vertical-align:top;">db_sessions</td><td style="vertical-align:top;">:</td><td><div>set([])</div></td></tr><tr><td style="font-weight:bold;vertical-align:top;">debugging</td><td style="vertical-align:top;">:</td><td><div>True</div></td></tr><tr><td style="font-weight:bold;vertical-align:top;">gluon_parent</td><td style="vertical-align:top;">:</td><td><div>/home/akash/web2py</div></td></tr><tr><td style="font-weight:bold;vertical-align:top;">is_jython</td><td style="vertical-align:top;">:</td><td><div>False</div></td></tr><tr><td style="font-weight:bold;vertical-align:top;">is_pypy</td><td style="vertical-align:top;">:</td><td><div>False</div></td></tr><tr><td style="font-weight:bold;vertical-align:top;">is_source</td><td style="vertical-align:top;">:</td><td><div>True</div></td></tr><tr><td style="font-weight:bold;vertical-align:top;">local_hosts</td><td style="vertical-align:top;">:</td><td><div><table><tr><td><div>ThePrototype</div></td></tr><tr><td><div>::1</div></td></tr><tr><td><div>127.0.1.1</div></td></tr><tr><td><div>::ffff:127.0.0.1</div></td></tr><tr><td><div>127.0.0.1</div></td></tr></table></div></td></tr><tr><td style="font-weight:bold;vertical-align:top;">web2py_version</td><td style="vertical-align:top;">:</td><td><div>2.12.3-stable+timestamp.2015.08.19.00.18.03</div></td></tr></table></div></td></tr><tr><td style="font-weight:bold;vertical-align:top;">is_https</td><td style="vertical-align:top;">:</td><td><div>False</div></td></tr><tr><td style="font-weight:bold;vertical-align:top;">is_local</td><td style="vertical-align:top;">:</td><td><div>True</div></td></tr><tr><td style="font-weight:bold;vertical-align:top;">is_restful</td><td style="vertical-align:top;">:</td><td><div>False</div></td></tr><tr><td style="font-weight:bold;vertical-align:top;">is_sheduler</td><td style="vertical-align:top;">:</td><td><div>None</div></td></tr><tr><td style="font-weight:bold;vertical-align:top;">is_shell</td><td style="vertical-align:top;">:</td><td><div>None</div></td></tr><tr><td style="font-weight:bold;vertical-align:top;">now</td><td style="vertical-align:top;">:</td><td><div>datetime.datetime(2015, 10, 9, 21, 11, 57, 942208)</div></td></tr><tr><td style="font-weight:bold;vertical-align:top;">raw_args</td><td style="vertical-align:top;">:</td><td><div>login</div></td></tr><tr><td style="font-weight:bold;vertical-align:top;">raw_extension</td><td style="vertical-align:top;">:</td><td><div>None</div></td></tr><tr><td style="font-weight:bold;vertical-align:top;">url</td><td style="vertical-align:top;">:</td><td><div>/welcome/default/user/login</div></td></tr><tr><td style="font-weight:bold;vertical-align:top;">utcnow</td><td style="vertical-align:top;">:</td><td><div>datetime.datetime(2015, 10, 9, 15, 41, 57, 942252)</div></td></tr><tr><td style="font-weight:bold;vertical-align:top;">wsgi</td><td style="vertical-align:top;">:</td><td><div>&lt;gluon.main.LazyWSGI object at 0xae1cc2ec&gt;</div></td></tr></table></div>'
tRp62
sS'frames'
p63
(lp64
(dp65
S'file'
p66
S'/home/akash/web2py/gluon/restricted.py'
p67
sS'dump'
p68
(dp69
S'environment'
p70
S"{'A': <class 'gluon.html.A'>, 'ANY_OF': <class 'gluon.validators.ANY_OF'>, 'ASSIGNJS': <function ASSIGNJS>, 'AppConfig': <function AppConfig>, 'Auth': <class 'gluon.tools.Auth'>, 'B': <class 'gluon.html.B'>, 'BEAUTIFY': <class 'gluon.html.BEAUTIFY'>, 'BODY': <class 'gluon.html.BODY'>, 'BR': <class 'gluon.html.BR'>, 'BUTTON': <class 'gluon.html.BUTTON'>, ...}"
p71
sS'ccode'
p72
S'<code object <module> at 0xae1dc068, file "/home...cations/welcome/controllers/default.py", line 11>'
p73
ssS'lnum'
p74
I227
sS'lines'
p75
(dp76
I224
S'            ccode = code'
p77
sI225
S'        else:'
p78
sI226
S'            ccode = compile2(code, layer)'
p79
sI227
S'        exec ccode in environment'
p80
sI228
S'    except HTTP:'
p81
sI229
S'        raise'
p82
sI230
S'    except RestrictedError:'
p83
sI231
S'        # do not encapsulate (obfuscate) the original RestrictedError'
p84
sI222
S'    try:'
p85
sI223
S'        if isinstance(code, types.CodeType):'
p86
ssS'call'
p87
S'(code="# -*- coding: utf-8 -*-\\n# this file is released ...,n=n)\\n\'\'\'\\n\\nresponse._vars=response._caller(user)\\n", environment={\'A\': <class \'gluon.html.A\'>, \'ANY_OF\': <class \'gluon.validators.ANY_OF\'>, \'ASSIGNJS\': <function ASSIGNJS>, \'AppConfig\': <function AppConfig>, \'Auth\': <class \'gluon.tools.Auth\'>, \'B\': <class \'gluon.html.B\'>, \'BEAUTIFY\': <class \'gluon.html.BEAUTIFY\'>, \'BODY\': <class \'gluon.html.BODY\'>, \'BR\': <class \'gluon.html.BR\'>, \'BUTTON\': <class \'gluon.html.BUTTON\'>, ...}, layer=\'/home/akash/web2py/applications/welcome/controllers/default.py\')'
p88
sS'func'
p89
S'restricted'
p90
sa(dp91
g66
S'/home/akash/web2py/applications/welcome/controllers/default.py'
p92
sg68
(dp93
sg74
I262
sg75
(dp94
I256
S'    if auth.is_logged_in() and db.auth(auth.user_id).type_of_account=="Student":'
p95
sI257
S'        n=db(db.tell_outcome._id>0).select()'
p96
sI258
S'        result=db.tell_outcome.problem_outcome'
p97
sI259
S'        return dict(result=result,n=n)'
p98
sI260
S"'''"
p99
sI251
S'        response.flash("Leave Submitted")'
p100
sI252
S'    else:'
p101
sI253
S'        response.flash("Leave Not Submitted")'
p102
sI254
S'    return dict(form=form)'
p103
sI255
S"'''def see_outcome():"
p104
ssg87
S'()'
p105
sg89
S'<module>'
p106
sa(dp107
g66
S'/home/akash/web2py/gluon/globals.py'
p108
sg68
(dp109
S'self'
p110
S'undefined'
p111
sS'f'
S'<function user>'
p112
ssg74
I412
sg75
(dp113
I416
S"        self.generic_patterns = ['*']"
p114
sI407
S"        self.flash = ''            # used by the default view layout"
p115
sI408
S'        self.meta = Storage()      # used by web2py_ajax.html'
p116
sI409
S'        self.menu = []             # used by the default view layout'
p117
sI410
S'        self.files = []            # used by web2py_ajax.html'
p118
sI411
S'        self._vars = None'
p119
sI412
S'        self._caller = lambda f: f()'
p120
sI413
S'        self._view_environment = None'
p121
sI414
S'        self._custom_commit = None'
p122
sI415
S'        self._custom_rollback = None'
p123
ssg87
S'(f=<function user>)'
p124
sg89
S'<lambda>'
p125
sa(dp126
g66
S'/home/akash/web2py/applications/welcome/controllers/default.py'
p127
sg68
(dp128
S'global auth'
p129
S'<gluon.tools.Auth object>'
p130
sS'form'
p131
g111
sS'builtindict'
p132
S"<type 'dict'>"
p133
ssg74
I168
sg75
(dp134
I163
S'    """'
p135
sI164
S"    if request.args(0)=='profile':"
p136
sI165
S'        db.auth_user.type_of_account.writable=False'
p137
sI166
S'        db.auth_user.registration_key.readable=db.auth_user.registration_key.writable=False'
p138
sI167
S'        #db.auth.settings.remember_me_form.readable=db.auth.settings.remember_me_form.writable=False'
p139
sI168
S'    return dict(form=auth())'
p140
sI169
S''
sI170
S"@auth.requires_membership('manager')"
p141
sI171
S'def manage():'
p142
sI172
S"    grid = SQLFORM.smartgrid(db.image,linked_tabled=['post'])"
p143
ssg87
S'()'
p144
sg89
S'user'
p145
sa(dp146
g66
S'/home/akash/web2py/gluon/tools.py'
p147
sg68
(dp148
S'self'
p149
S'<gluon.tools.Auth object>'
p150
sS'args'
p151
S"['login']"
p152
sS'builtingetattr'
p153
S'<built-in function getattr>'
p154
ssg74
I1613
sg75
(dp155
I1608
S"                       'impersonate', 'not_authorized', 'confirm_registration',"
p156
sI1609
S"                       'bulk_register','manage_tokens'):"
p157
sI1610
S"            if len(request.args) >= 2 and args[0] == 'impersonate':"
p158
sI1611
S'                return getattr(self, args[0])(request.args[1])'
p159
sI1612
S'            else:'
p160
sI1613
S'                return getattr(self, args[0])()'
p161
sI1614
S"        elif args[0] == 'cas' and not self.settings.cas_provider:"
p162
sI1615
S"            if args(1) == self.settings.cas_actions['login']:"
p163
sI1616
S'                return self.cas_login(version=2)'
p164
sI1617
S"            elif args(1) == self.settings.cas_actions['validate']:"
p165
ssg87
S'(self=<gluon.tools.Auth object>)'
p166
sg89
S'__call__'
p167
sa(dp168
g66
S'/home/akash/web2py/gluon/tools.py'
p169
sg68
(dp170
S'table_user'
p171
S'<Table auth_user (id,first_name,last_name,email,...ich_hostel,floor_no,room_number,type_of_account)>'
p172
sS'username'
p173
S"'email'"
p174
sS'entered_username'
p175
S"'akash.d14@iiits.in'"
p176
sS'user'
p177
S'None'
p178
ssg74
I2635
sg75
(dp179
I2630
S'                    entered_username = form.vars[username]'
p180
sI2631
S"                    if multi_login and '@' in entered_username:"
p181
sI2632
S"                        # if '@' in username check for email, not username"
p182
sI2633
S'                        user = table_user(email = entered_username)'
p183
sI2634
S'                    else:'
p184
sI2635
S'                        user = table_user(**{username: entered_username})'
p185
sI2636
S'                    if user:'
p186
sI2637
S'                        # user in db, check if registration pending or disabled'
p187
sI2638
S'                        temp_user = user'
p188
sI2639
S"                        if temp_user.registration_key == 'pending':"
p189
ssg87
S"(self=<gluon.tools.Auth object>, next='/welcome/default/index', onvalidation=[], onaccept=[], log='User %(id)s Logged-in')"
p190
sg89
S'login'
p191
sa(dp192
g66
S'/home/akash/web2py/gluon/packages/dal/pydal/objects.py'
p193
sg68
(dp194
S'orderby'
p195
S'None'
p196
sS'orderby_on_limitby'
p197
g111
sS'builtinFalse'
p198
S'False'
p199
sS'self'
p200
S'<Table auth_user (id,first_name,last_name,email,...ich_hostel,floor_no,room_number,type_of_account)>'
p201
sS'limitby'
p202
g111
sS').select'
p203
g111
sS'for_update'
p204
g199
sS'query'
p205
S"<Query (auth_user.email = 'akash.d14@iiits.in')>"
p206
sS'self._db'
p207
S'<DAL uri="sqlite://storage.sqlite">'
p208
sS').first'
p209
g111
ssg74
I540
sg75
(dp210
I544
S'    def __setitem__(self, key, value):'
p211
sI535
S'                for k,v in iteritems(kwargs):'
p212
sI536
S'                    if record[k]!=v: return None'
p213
sI537
S'            return record'
p214
sI538
S'        elif kwargs:'
p215
sI539
S'            query = reduce(lambda a,b:a&b,[self[k]==v for k,v in iteritems(kwargs)])'
p216
sI540
S'            return self._db(query).select(limitby=(0,1),for_update=for_update, orderby=orderby, orderby_on_limitby=False).first()'
p217
sI541
S'        else:'
p218
sI542
S'            return None'
p219
sI543
S''
ssg87
S"(self=<Table auth_user (id,first_name,last_name,email,...ich_hostel,floor_no,room_number,type_of_account)>, key=<function <lambda>>, **kwargs={'email': 'akash.d14@iiits.in'})"
p220
sg89
g167
sa(dp221
g66
S'/home/akash/web2py/gluon/packages/dal/pydal/objects.py'
p222
sg68
(dp223
S'self.query'
p224
S"<Query (auth_user.email = 'akash.d14@iiits.in')>"
p225
sS'adapter.select'
p226
S'<bound method SQLiteAdapter.select of <pydal.adapters.sqlite.SQLiteAdapter object>>'
p227
sS'fields'
p228
S'[<pydal.objects.Field object>, <pydal.objects.Field object>, <pydal.objects.Field object>, <pydal.objects.Field object>, <pydal.objects.Field object>, <pydal.objects.Field object>, <pydal.objects.Field object>, <pydal.objects.Field object>, <pydal.objects.Field object>, <pydal.objects.Field object>, <pydal.objects.Field object>, <pydal.objects.Field object>, <pydal.objects.Field object>, <pydal.objects.Field object>, <pydal.objects.Field object>, <pydal.objects.Field object>, <pydal.objects.Field object>]'
p229
sS'adapter'
p230
S'<pydal.adapters.sqlite.SQLiteAdapter object>'
p231
sS'attributes'
p232
S"{'for_update': False, 'limitby': (0, 1), 'orderby': None, 'orderby_on_limitby': False}"
p233
sS'self'
p234
S"<Set (auth_user.email = 'akash.d14@iiits.in')>"
p235
ssg74
I2002
sg75
(dp236
I1997
S"                                    attributes.get('join',None),"
p237
sI1998
S"                                    attributes.get('left',None),"
p238
sI1999
S"                                    attributes.get('orderby',None),"
p239
sI2000
S"                                    attributes.get('groupby',None))"
p240
sI2001
S'        fields = adapter.expand_all(fields, tablenames)'
p241
sI2002
S'        return adapter.select(self.query,fields,attributes)'
p242
sI2003
S''
sI2004
S'    def iterselect(self, *fields, **attributes):'
p243
sI2005
S'        adapter = self.db._adapter'
p244
sI2006
S'        tablenames = adapter.tables(self.query,'
p245
ssg87
S"(self=<Set (auth_user.email = 'akash.d14@iiits.in')>, *fields=[<pydal.objects.Field object>, <pydal.objects.Field object>, <pydal.objects.Field object>, <pydal.objects.Field object>, <pydal.objects.Field object>, <pydal.objects.Field object>, <pydal.objects.Field object>, <pydal.objects.Field object>, <pydal.objects.Field object>, <pydal.objects.Field object>, <pydal.objects.Field object>, <pydal.objects.Field object>, <pydal.objects.Field object>, <pydal.objects.Field object>, <pydal.objects.Field object>, <pydal.objects.Field object>, <pydal.objects.Field object>], **attributes={'for_update': False, 'limitby': (0, 1), 'orderby': None, 'orderby_on_limitby': False})"
p246
sg89
S'select'
p247
sa(dp248
g66
S'/home/akash/web2py/gluon/packages/dal/pydal/adapters/sqlite.py'
p249
sg68
(dp250
S'fields'
p251
S'[<pydal.objects.Field object>, <pydal.objects.Field object>, <pydal.objects.Field object>, <pydal.objects.Field object>, <pydal.objects.Field object>, <pydal.objects.Field object>, <pydal.objects.Field object>, <pydal.objects.Field object>, <pydal.objects.Field object>, <pydal.objects.Field object>, <pydal.objects.Field object>, <pydal.objects.Field object>, <pydal.objects.Field object>, <pydal.objects.Field object>, <pydal.objects.Field object>, <pydal.objects.Field object>, <pydal.objects.Field object>]'
p252
sS'self'
p253
S'<pydal.adapters.sqlite.SQLiteAdapter object>'
p254
sS').select'
p255
S'<bound method SQLiteAdapter.select of <pydal.adapters.sqlite.SQLiteAdapter object>>'
p256
sS'attributes'
p257
S"{'for_update': False, 'limitby': (0, 1), 'orderby': None, 'orderby_on_limitby': False}"
p258
sS'global SQLiteAdapter'
p259
S"<class 'pydal.adapters.sqlite.SQLiteAdapter'>"
p260
sS'query'
p261
S"<Query (auth_user.email = 'akash.d14@iiits.in')>"
p262
sS'builtinsuper'
p263
S"<type 'super'>"
p264
ssg74
I122
sg75
(dp265
I117
S'        Note that the entire database, rather than one record, is locked'
p266
sI118
S'        (it will be locked eventually anyway by the following UPDATE).'
p267
sI119
S'        """'
p268
sI120
S"        if attributes.get('for_update', False) and not 'cache' in attributes:"
p269
sI121
S"            self.execute('BEGIN IMMEDIATE TRANSACTION;')"
p270
sI122
S'        return super(SQLiteAdapter, self).select(query, fields, attributes)'
p271
sI123
S''
sI124
S''
sI125
S'SPATIALLIBS = {'
p272
sI126
S"    'Windows':'libspatialite',"
p273
ssg87
S"(self=<pydal.adapters.sqlite.SQLiteAdapter object>, query=<Query (auth_user.email = 'akash.d14@iiits.in')>, fields=[<pydal.objects.Field object>, <pydal.objects.Field object>, <pydal.objects.Field object>, <pydal.objects.Field object>, <pydal.objects.Field object>, <pydal.objects.Field object>, <pydal.objects.Field object>, <pydal.objects.Field object>, <pydal.objects.Field object>, <pydal.objects.Field object>, <pydal.objects.Field object>, <pydal.objects.Field object>, <pydal.objects.Field object>, <pydal.objects.Field object>, <pydal.objects.Field object>, <pydal.objects.Field object>, <pydal.objects.Field object>], attributes={'for_update': False, 'limitby': (0, 1), 'orderby': None, 'orderby_on_limitby': False})"
p274
sg89
g247
sa(dp275
g66
S'/home/akash/web2py/gluon/packages/dal/pydal/adapters/base.py'
p276
sg68
(dp277
S'fields'
p278
S'[<pydal.objects.Field object>, <pydal.objects.Field object>, <pydal.objects.Field object>, <pydal.objects.Field object>, <pydal.objects.Field object>, <pydal.objects.Field object>, <pydal.objects.Field object>, <pydal.objects.Field object>, <pydal.objects.Field object>, <pydal.objects.Field object>, <pydal.objects.Field object>, <pydal.objects.Field object>, <pydal.objects.Field object>, <pydal.objects.Field object>, <pydal.objects.Field object>, <pydal.objects.Field object>, <pydal.objects.Field object>]'
p279
sS'self'
p280
S'<pydal.adapters.sqlite.SQLiteAdapter object>'
p281
sS'attributes'
p282
S"{'for_update': False, 'limitby': (0, 1), 'orderby': None, 'orderby_on_limitby': False}"
p283
sS'self._select_aux'
p284
S'<bound method SQLiteAdapter._select_aux of <pydal.adapters.sqlite.SQLiteAdapter object>>'
p285
sS'sql'
p286
S'"SELECT  auth_user.id, auth_user.first_name, auth...r.email = \'akash.d14@iiits.in\') LIMIT 1 OFFSET 0;"'
p287
ssg74
I1286
sg75
(dp288
I1281
S'            return cache_model('
p289
sI1282
S'                key,'
p290
sI1283
S'                lambda self=self,args=args:self._select_aux(*args),'
p291
sI1284
S'                time_expire)'
p292
sI1285
S'        else:'
p293
sI1286
S'            return self._select_aux(sql,fields,attributes)'
p294
sI1287
S''
sI1288
S'    def iterselect(self, query, fields, attributes):'
p295
sI1289
S'        sql = self._select(query, fields, attributes)'
p296
sI1290
S"        cacheable = attributes.get('cacheable', False)"
p297
ssg87
S"(self=<pydal.adapters.sqlite.SQLiteAdapter object>, query=<Query (auth_user.email = 'akash.d14@iiits.in')>, fields=[<pydal.objects.Field object>, <pydal.objects.Field object>, <pydal.objects.Field object>, <pydal.objects.Field object>, <pydal.objects.Field object>, <pydal.objects.Field object>, <pydal.objects.Field object>, <pydal.objects.Field object>, <pydal.objects.Field object>, <pydal.objects.Field object>, <pydal.objects.Field object>, <pydal.objects.Field object>, <pydal.objects.Field object>, <pydal.objects.Field object>, <pydal.objects.Field object>, <pydal.objects.Field object>, <pydal.objects.Field object>], attributes={'for_update': False, 'limitby': (0, 1), 'orderby': None, 'orderby_on_limitby': False})"
p298
sg89
g247
sa(dp299
g66
S'/home/akash/web2py/gluon/packages/dal/pydal/adapters/base.py'
p300
sg68
(dp301
S'self'
p302
S'<pydal.adapters.sqlite.SQLiteAdapter object>'
p303
sS'self.execute'
p304
S'<bound method SQLiteAdapter.execute of <pydal.adapters.sqlite.SQLiteAdapter object>>'
p305
sS'sql'
p306
S'"SELECT  auth_user.id, auth_user.first_name, auth...r.email = \'akash.d14@iiits.in\') LIMIT 1 OFFSET 0;"'
p307
ssg74
I1243
sg75
(dp308
I1238
S''
sI1239
S'    def _select_aux(self, sql, fields, attributes):'
p309
sI1240
S'        args_get = attributes.get'
p310
sI1241
S"        cache = args_get('cache',None)"
p311
sI1242
S'        if not cache:'
p312
sI1243
S'            self.execute(sql)'
p313
sI1244
S'            rows = self._fetchall()'
p314
sI1245
S'        else:'
p315
sI1246
S'            if isinstance(cache, dict):'
p316
sI1247
S"                cache_model = cache['model']"
p317
ssg87
S'(self=<pydal.adapters.sqlite.SQLiteAdapter object>, sql="SELECT  auth_user.id, auth_user.first_name, auth...r.email = \'akash.d14@iiits.in\') LIMIT 1 OFFSET 0;", fields=[<pydal.objects.Field object>, <pydal.objects.Field object>, <pydal.objects.Field object>, <pydal.objects.Field object>, <pydal.objects.Field object>, <pydal.objects.Field object>, <pydal.objects.Field object>, <pydal.objects.Field object>, <pydal.objects.Field object>, <pydal.objects.Field object>, <pydal.objects.Field object>, <pydal.objects.Field object>, <pydal.objects.Field object>, <pydal.objects.Field object>, <pydal.objects.Field object>, <pydal.objects.Field object>, <pydal.objects.Field object>], attributes={\'for_update\': False, \'limitby\': (0, 1), \'orderby\': None, \'orderby_on_limitby\': False})'
p318
sg89
S'_select_aux'
p319
sa(dp320
g66
S'/home/akash/web2py/gluon/packages/dal/pydal/adapters/base.py'
p321
sg68
(dp322
S'a'
S'("SELECT  auth_user.id, auth_user.first_name, auth...r.email = \'akash.d14@iiits.in\') LIMIT 1 OFFSET 0;",)'
p323
sS'self'
p324
S'<pydal.adapters.sqlite.SQLiteAdapter object>'
p325
sS'b'
g21
sS'self.log_execute'
p326
S'<bound method SQLiteAdapter.log_execute of <pydal.adapters.sqlite.SQLiteAdapter object>>'
p327
ssg74
I1378
sg75
(dp328
I1376
S''
sI1377
S'    def execute(self, *a, **b):'
p329
sI1378
S'        return self.log_execute(*a, **b)'
p330
sI1379
S''
sI1380
S'    def execute_test_query(self):'
p331
sI1381
S'        return self.execute(self.test_query)'
p332
sI1382
S''
sI1373
S'        self.db._timings.append((command,time.time()-t0))'
p333
sI1374
S'        del self.db._timings[:-TIMINGSSIZE]'
p334
sI1375
S'        return ret'
p335
ssg87
S'(self=<pydal.adapters.sqlite.SQLiteAdapter object>, *a=("SELECT  auth_user.id, auth_user.first_name, auth...r.email = \'akash.d14@iiits.in\') LIMIT 1 OFFSET 0;",), **b={})'
p336
sg89
S'execute'
p337
sa(dp338
g66
S'/home/akash/web2py/gluon/packages/dal/pydal/adapters/base.py'
p339
sg68
(dp340
S'a'
S'("SELECT  auth_user.id, auth_user.first_name, auth...r.email = \'akash.d14@iiits.in\') LIMIT 1 OFFSET 0;",)'
p341
sS'b'
g21
sS'self'
p342
S'<pydal.adapters.sqlite.SQLiteAdapter object>'
p343
sS'ret'
p344
g111
sS'self.cursor'
p345
S'<sqlite3.Cursor object>'
p346
sS'command'
p347
S'"SELECT  auth_user.id, auth_user.first_name, auth...r.email = \'akash.d14@iiits.in\') LIMIT 1 OFFSET 0;"'
p348
sS'self.cursor.execute'
p349
S'<built-in method execute of sqlite3.Cursor object>'
p350
ssg74
I1372
sg75
(dp351
I1376
S''
sI1367
S'            command = self.filter_sql_command(command)'
p352
sI1368
S'        if self.db._debug:'
p353
sI1369
S"            self.db.logger.debug('SQL: %s' % command)"
p354
sI1370
S'        self.db._lastsql = command'
p355
sI1371
S'        t0 = time.time()'
p356
sI1372
S'        ret = self.cursor.execute(command, *a[1:], **b)'
p357
sI1373
S'        self.db._timings.append((command,time.time()-t0))'
p358
sI1374
S'        del self.db._timings[:-TIMINGSSIZE]'
p359
sI1375
S'        return ret'
p360
ssg87
S'(self=<pydal.adapters.sqlite.SQLiteAdapter object>, *a=("SELECT  auth_user.id, auth_user.first_name, auth...r.email = \'akash.d14@iiits.in\') LIMIT 1 OFFSET 0;",), **b={})'
p361
sg89
S'log_execute'
p362
sasS'pyver'
p363
S'Python 2.7.6: /usr/bin/python (prefix: /usr)'
p364
sS'session'
p365
g61
(S's\x9b\x00\x00\x00<div><table><tr><td style="font-weight:bold;vertical-align:top;">counter</td><td style="vertical-align:top;">:</td><td><div>2</div></td></tr></table></div>'
tRp366
sS'etype'
p367
S"<class 'sqlite3.OperationalError'>"
p368
sS'date'
p369
S'Fri Oct  9 21:11:58 2015'
p370
sS'response'
p371
g61
(S's*%\x00\x00<div><table><tr><td style="font-weight:bold;vertical-align:top;">body</td><td style="vertical-align:top;">:</td><td><div>&lt;cStringIO.StringO object at 0xae1cc5c0&gt;</div></td></tr><tr><td style="font-weight:bold;vertical-align:top;">cookies</td><td style="vertical-align:top;">:</td><td><div><table><tr><td style="font-weight:bold;vertical-align:top;">session_id_welcome</td><td style="vertical-align:top;">:</td><td><div>127.0.0.1-8a6ce39b-c690-4f4f-b134-a982ed0bdfa0<table><tr><td style="font-weight:bold;vertical-align:top;">comment</td><td style="vertical-align:top;">:</td><td><div></div></td></tr><tr><td style="font-weight:bold;vertical-align:top;">domain</td><td style="vertical-align:top;">:</td><td><div></div></td></tr><tr><td style="font-weight:bold;vertical-align:top;">expires</td><td style="vertical-align:top;">:</td><td><div></div></td></tr><tr><td style="font-weight:bold;vertical-align:top;">httponly</td><td style="vertical-align:top;">:</td><td><div></div></td></tr><tr><td style="font-weight:bold;vertical-align:top;">max-age</td><td style="vertical-align:top;">:</td><td><div></div></td></tr><tr><td style="font-weight:bold;vertical-align:top;">path</td><td style="vertical-align:top;">:</td><td><div>/</div></td></tr><tr><td style="font-weight:bold;vertical-align:top;">secure</td><td style="vertical-align:top;">:</td><td><div></div></td></tr><tr><td style="font-weight:bold;vertical-align:top;">version</td><td style="vertical-align:top;">:</td><td><div></div></td></tr></table></div></td></tr></table></div></td></tr><tr><td style="font-weight:bold;vertical-align:top;">delimiters</td><td style="vertical-align:top;">:</td><td><div><table><tr><td><div>{{</div></td></tr><tr><td><div>}}</div></td></tr></table></div></td></tr><tr><td style="font-weight:bold;vertical-align:top;">files</td><td style="vertical-align:top;">:</td><td><div><table></table></div></td></tr><tr><td style="font-weight:bold;vertical-align:top;">flash</td><td style="vertical-align:top;">:</td><td><div></div></td></tr><tr><td style="font-weight:bold;vertical-align:top;">form_label_separator</td><td style="vertical-align:top;">:</td><td><div></div></td></tr><tr><td style="font-weight:bold;vertical-align:top;">formstyle</td><td style="vertical-align:top;">:</td><td><div>bootstrap3_inline</div></td></tr><tr><td style="font-weight:bold;vertical-align:top;">generic_patterns</td><td style="vertical-align:top;">:</td><td><div><table><tr><td><div>*</div></td></tr></table></div></td></tr><tr><td style="font-weight:bold;vertical-align:top;">google_analytics_id</td><td style="vertical-align:top;">:</td><td><div>None</div></td></tr><tr><td style="font-weight:bold;vertical-align:top;">headers</td><td style="vertical-align:top;">:</td><td><div><table><tr><td style="font-weight:bold;vertical-align:top;">X-Powered-By</td><td style="vertical-align:top;">:</td><td><div>web2py</div></td></tr></table></div></td></tr><tr><td style="font-weight:bold;vertical-align:top;">logo</td><td style="vertical-align:top;">:</td><td><div><a href="http://www.iiits.ac.in/" id="iiits-logo"><img height="55px" src="/welcome/static/iiits-logo.png" /></a></div></td></tr><tr><td style="font-weight:bold;vertical-align:top;">menu</td><td style="vertical-align:top;">:</td><td><div><table><tr><td><div><table><tr><td><div>Home</div></td></tr><tr><td><div>False</div></td></tr><tr><td><div>/welcome/default/index</div></td></tr><tr><td><div><table></table></div></td></tr></table></div></td></tr><tr><td><div><table><tr><td><div>Our Hostel</div></td></tr><tr><td><div>False</div></td></tr><tr><td><div>/welcome/default/Our Hostel</div></td></tr></table></div></td></tr><tr><td><div><table><tr><td><div>Useful Contact Numbers</div></td></tr><tr><td><div>False</div></td></tr><tr><td><div>/welcome/default/contactlist</div></td></tr></table></div></td></tr><tr><td><div><table><tr><td><div>Facilities</div></td></tr><tr><td><div>False</div></td></tr><tr><td><div>#</div></td></tr><tr><td><div><table><tr><td><div><table><tr><td><div>Room Changing/Swapping</div></td></tr><tr><td><div>False</div></td></tr><tr><td><div>/welcome/default/changing</div></td></tr></table></div></td></tr><tr><td><div><table><tr><td><div>Room Allotment List</div></td></tr><tr><td><div>False</div></td></tr><tr><td><div>/welcome/default/list</div></td></tr></table></div></td></tr><tr><td><div><table><tr><td><div>Hostel structure</div></td></tr><tr><td><div>False</div></td></tr><tr><td><div>/welcome/default/p5</div></td></tr></table></div></td></tr><tr><td><div><table><tr><td><div>Complaints and Suggestions</div></td></tr><tr><td><div>False</div></td></tr><tr><td><div>/welcome/default/complain</div></td></tr></table></div></td></tr><tr><td><div><table><tr><td><div>Images</div></td></tr><tr><td><div>False</div></td></tr><tr><td><div>/welcome/default/ak</div></td></tr></table></div></td></tr><tr><td><div><table><tr><td><div>Our Wiki</div></td></tr><tr><td><div>False</div></td></tr><tr><td><div>/welcome/default/wiki1</div></td></tr></table></div></td></tr><tr><td><div><table><tr><td><div>Our Discussion Forum</div></td></tr><tr><td><div>False</div></td></tr><tr><td><div>/welcome/default/dis</div></td></tr></table></div></td></tr><tr><td><div><table><tr><td><div>About</div></td></tr><tr><td><div>False</div></td></tr><tr><td><div>/welcome/default/about</div></td></tr></table></div></td></tr></table></div></td></tr></table></div></td></tr></table></div></td></tr><tr><td style="font-weight:bold;vertical-align:top;">meta</td><td style="vertical-align:top;">:</td><td><div><table><tr><td style="font-weight:bold;vertical-align:top;">author</td><td style="vertical-align:top;">:</td><td><div>Your Name &lt;you@example.com&gt;</div></td></tr><tr><td style="font-weight:bold;vertical-align:top;">description</td><td style="vertical-align:top;">:</td><td><div>a cool new portal</div></td></tr><tr><td style="font-weight:bold;vertical-align:top;">generator</td><td style="vertical-align:top;">:</td><td><div>Web2py Web Framework</div></td></tr><tr><td style="font-weight:bold;vertical-align:top;">keywords</td><td style="vertical-align:top;">:</td><td><div>web2py, python, framework</div></td></tr></table></div></td></tr><tr><td style="font-weight:bold;vertical-align:top;">models_to_run</td><td style="vertical-align:top;">:</td><td><div><table><tr><td><div>^\\w+\\.py$</div></td></tr><tr><td><div>^default/\\w+\\.py$</div></td></tr><tr><td><div>^default/user/\\w+\\.py$</div></td></tr></table></div></td></tr><tr><td style="font-weight:bold;vertical-align:top;">postprocessing</td><td style="vertical-align:top;">:</td><td><div><table></table></div></td></tr><tr><td style="font-weight:bold;vertical-align:top;">session_client</td><td style="vertical-align:top;">:</td><td><div>127.0.0.1</div></td></tr><tr><td style="font-weight:bold;vertical-align:top;">session_cookie_compression_level</td><td style="vertical-align:top;">:</td><td><div>None</div></td></tr><tr><td style="font-weight:bold;vertical-align:top;">session_cookie_expires</td><td style="vertical-align:top;">:</td><td><div>None</div></td></tr><tr><td style="font-weight:bold;vertical-align:top;">session_cookie_key</td><td style="vertical-align:top;">:</td><td><div>None</div></td></tr><tr><td style="font-weight:bold;vertical-align:top;">session_data_name</td><td style="vertical-align:top;">:</td><td><div>session_data_welcome</div></td></tr><tr><td style="font-weight:bold;vertical-align:top;">session_file</td><td style="vertical-align:top;">:</td><td><div>&lt;open file &#x27;/home/akash/web2py/applications/welcome/sessions/1a3/095/127.0.0.1-8a6ce39b-c690-4f4f-b134-a982ed0bdfa0&#x27;, mode &#x27;rb+&#x27; at 0xae1d9e38&gt;</div></td></tr><tr><td style="font-weight:bold;vertical-align:top;">session_filename</td><td style="vertical-align:top;">:</td><td><div>/home/akash/web2py/applications/welcome/sessions/127.0.0.1-8a6ce39b-c690-4f4f-b134-a982ed0bdfa0</div></td></tr><tr><td style="font-weight:bold;vertical-align:top;">session_hash</td><td style="vertical-align:top;">:</td><td><div>9942a74cb049b2545a5163e4fc6c4533</div></td></tr><tr><td style="font-weight:bold;vertical-align:top;">session_id</td><td style="vertical-align:top;">:</td><td><div>127.0.0.1-8a6ce39b-c690-4f4f-b134-a982ed0bdfa0</div></td></tr><tr><td style="font-weight:bold;vertical-align:top;">session_id_name</td><td style="vertical-align:top;">:</td><td><div>session_id_welcome</div></td></tr><tr><td style="font-weight:bold;vertical-align:top;">session_locked</td><td style="vertical-align:top;">:</td><td><div>True</div></td></tr><tr><td style="font-weight:bold;vertical-align:top;">session_masterapp</td><td style="vertical-align:top;">:</td><td><div>welcome</div></td></tr><tr><td style="font-weight:bold;vertical-align:top;">session_new</td><td style="vertical-align:top;">:</td><td><div>False</div></td></tr><tr><td style="font-weight:bold;vertical-align:top;">session_storage_type</td><td style="vertical-align:top;">:</td><td><div>file</div></td></tr><tr><td style="font-weight:bold;vertical-align:top;">status</td><td style="vertical-align:top;">:</td><td><div>200</div></td></tr><tr><td style="font-weight:bold;vertical-align:top;">subtitle</td><td style="vertical-align:top;">:</td><td><div></div></td></tr><tr><td style="font-weight:bold;vertical-align:top;">title</td><td style="vertical-align:top;">:</td><td><div>Welcome</div></td></tr><tr><td style="font-weight:bold;vertical-align:top;">view</td><td style="vertical-align:top;">:</td><td><div>default/user.html</div></td></tr></table></div>'
tRp372
sS'locals'
p373
(dp374
S'a'
S'("SELECT  auth_user.id, auth_user.first_name, auth...r.email = \'akash.d14@iiits.in\') LIMIT 1 OFFSET 0;",)'
p375
sS'self'
p376
S'<pydal.adapters.sqlite.SQLiteAdapter object>'
p377
sS'b'
g21
sS'command'
p378
S'"SELECT  auth_user.id, auth_user.first_name, auth...r.email = \'akash.d14@iiits.in\') LIMIT 1 OFFSET 0;"'
p379
sS't0'
p380
S'1444405318.146054'
p381
sssS'traceback'
p382
S'Traceback (most recent call last):\n  File "/home/akash/web2py/gluon/restricted.py", line 227, in restricted\n    exec ccode in environment\n  File "/home/akash/web2py/applications/welcome/controllers/default.py", line 262, in <module>\n  File "/home/akash/web2py/gluon/globals.py", line 412, in <lambda>\n    self._caller = lambda f: f()\n  File "/home/akash/web2py/applications/welcome/controllers/default.py", line 168, in user\n    return dict(form=auth())\n  File "/home/akash/web2py/gluon/tools.py", line 1613, in __call__\n    return getattr(self, args[0])()\n  File "/home/akash/web2py/gluon/tools.py", line 2635, in login\n    user = table_user(**{username: entered_username})\n  File "/home/akash/web2py/gluon/packages/dal/pydal/objects.py", line 540, in __call__\n    return self._db(query).select(limitby=(0,1),for_update=for_update, orderby=orderby, orderby_on_limitby=False).first()\n  File "/home/akash/web2py/gluon/packages/dal/pydal/objects.py", line 2002, in select\n    return adapter.select(self.query,fields,attributes)\n  File "/home/akash/web2py/gluon/packages/dal/pydal/adapters/sqlite.py", line 122, in select\n    return super(SQLiteAdapter, self).select(query, fields, attributes)\n  File "/home/akash/web2py/gluon/packages/dal/pydal/adapters/base.py", line 1286, in select\n    return self._select_aux(sql,fields,attributes)\n  File "/home/akash/web2py/gluon/packages/dal/pydal/adapters/base.py", line 1243, in _select_aux\n    self.execute(sql)\n  File "/home/akash/web2py/gluon/packages/dal/pydal/adapters/base.py", line 1378, in execute\n    return self.log_execute(*a, **b)\n  File "/home/akash/web2py/gluon/packages/dal/pydal/adapters/base.py", line 1372, in log_execute\n    ret = self.cursor.execute(command, *a[1:], **b)\nOperationalError: no such column: auth_user.which_hostel\n'
p383
s.