(dp1
S'output'
p2
S"<type 'exceptions.TypeError'> unsupported operand type(s) for -: 'str' and 'str'"
p3
sS'layer'
p4
S'/home/akash/web2py/applications/welcome/models/db.py'
p5
sS'code'
p6
S'# -*- coding: utf-8 -*-\n\n#########################################################################\n## This scaffolding model makes your app work on Google App Engine too\n## File is released under public domain and you can use without limitations\n#########################################################################\n\n## if SSL/HTTPS is properly configured and you want all HTTP requests to\n## be redirected to HTTPS, uncomment the line below:\n# request.requires_https()\n\n## app configuration made easy. Look inside private/appconfig.ini\nfrom gluon.contrib.appconfig import AppConfig\n## once in production, remove reload=True to gain full speed\nmyconf = AppConfig(reload=True)\n\n#DAL(uri, migrate=False, fake_migrate=False)\n#DAL(uri, migrate=False, fake_migrate=True)\n#db=DAL(\'auth_user\',migrate=False,fake_migrate=False)\nif not request.env.web2py_runtime_gae:\n    ## if NOT running on Google App Engine use SQLite or other DB\n    db = DAL(myconf.take(\'db.uri\'), pool_size=myconf.take(\'db.pool_size\', cast=int), check_reserved=[\'all\'])\nelse:\n    ## connect to Google BigTable (optional \'google:datastore://namespace\')\n    db = DAL(\'google:datastore+ndb\')\n    ## store sessions and tickets there\n    session.connect(request, response, db=db)\n    ## or store session in Memcache, Redis, etc.\n    ## from gluon.contrib.memdb import MEMDB\n    ## from google.appengine.api.memcache import Client\n    ## session.connect(request, response, db = MEMDB(Client()))\n\n## by default give a view/generic.extension to all actions from localhost\n## none otherwise. a pattern can be \'controller/function.extension\'\nresponse.generic_patterns = [\'*\'] if request.is_local else []\n## choose a style for forms\nresponse.formstyle = myconf.take(\'forms.formstyle\')  # or \'bootstrap3_stacked\' or \'bootstrap2\' or other\nresponse.form_label_separator = myconf.take(\'forms.separator\')\n\n\n## (optional) optimize handling of static files\n# response.optimize_css = \'concat,minify,inline\'\n# response.optimize_js = \'concat,minify,inline\'\n## (optional) static assets folder versioning\n# response.static_version = \'0.0.0\'\n#########################################################################\n## Here is sample code if you need for\n## - email capabilities\n## - authentication (registration, login, logout, ... )\n## - authorization (role based authorization)\n## - services (xml, csv, json, xmlrpc, jsonrpc, amf, rss)\n## - old style crud actions\n## (more options discussed in gluon/tools.py)\n#########################################################################\n\nfrom gluon.tools import Auth, Crud, Service, PluginManager\n\nauth = Auth(db)\nservice = Service()\nplugins = PluginManager()\n\n## create all tables needed by auth if not custom tables\n#auth.define_tables()\n############### Table for registration form ################\nauth.settings.manager_actions = dict(db_admin=dict(role=\'admin\',heading=\'Managing Registrations\',tables=db.tables))\nauth.settings.extra_fields[\'auth_user\']=[\n    Field(\'gender\',requires=IS_IN_SET([\'Male\',\'Female\'])),\n    Field(\'room_partner\',unique=True),\n    #Field(\'room_alotted_or_not\',requires=IS_IN_SET([\'Yes\',\'No\'])),\n    Field(\'phone_number\',requires=IS_MATCH(\'\\d{10}\')),\n    Field(\'physically_handicapped\',requires=IS_IN_SET([\'Yes\',\'No\'])),\n    Field(\'admission_number\'),\n    Field(\'which_hostel\',requires=IS_IN_SET([\'Boys Hostel\',\'Girls Hostel\'])),\n    Field(\'floor_no\',requires=IS_IN_SET([\'Ground\',\'First\',\'Second\',\'Third\',\'Fourth\'])),\n    Field(\'room_number\',requires=IS_MATCH(\'\\d{1}\'-\'\\c{A-Z}\')),\n    Field(\'type_of_account\',requires=IS_IN_SET([\'Student\',\'Faculty\',\'Hostel Committee\',\'Super Admin\']))]\n#if db.auth_user.which_hostel==\'Boys Hostel\':\n#    auth.settings.extra_fields[\'auth_user\']=[Field(\'room_number\')]\nauth.define_tables(migrate=False)\n\'\'\'auth.settings.manager_actions = dict(\n    db_admin=dict(role=\'Super\', heading="Manage Database", tables=db.tables),\n    content_admin=dict(role=\'Content Manager\', tables=[content_db.articles, content_db.recipes, content_db.comments]),\n    content_mgr_grp_v2 = dict(role=\'Content Manager v2\', db=content_db,\n        tables=[\'articles\',\'recipes\',\'comments\'],\n        smartgrid_args=dict(\n                DEFAULT=dict(maxtextlength=50,paginate=30),\n                comments=dict(maxtextlength=100,editable=False)\n        )\n    )\n\'\'\'\n###############################################################\n\n\n## configure email\nmail = auth.settings.mailer\nmail.settings.server = \'logging\' if request.is_local else myconf.take(\'smtp.server\')\nmail.settings.sender = myconf.take(\'smtp.sender\')\nmail.settings.login = myconf.take(\'smtp.login\')\n\n## configure auth policy\nauth.settings.registration_requires_verification = False\nauth.settings.registration_requires_approval = True\nauth.settings.reset_password_requires_verification = True\n\n#########################################################################\n## Define your tables below (or better in another model file) for example\n##\n## >>> db.define_table(\'mytable\',Field(\'myfield\',\'string\'))\n##\n## Fields can be \'string\',\'text\',\'password\',\'integer\',\'double\',\'boolean\'\n##       \'date\',\'time\',\'datetime\',\'blob\',\'upload\', \'reference TABLENAME\'\n## There is an implicit \'id integer autoincrement\' field\n## Consult manual for more options, validators, etc.\n##\n## More API examples for controllers:\n##\n## >>> db.mytable.insert(myfield=\'value\')\n## >>> rows=db(db.mytable.myfield==\'value\').select(db.mytable.ALL)\n## >>> for row in rows: print row.id, row.myfield\n#########################################################################\n\n## after defining tables, uncomment below to enable auditing\n# auth.enable_record_versioning(db)\n#db=DAL(\'sqlite://storage.sqlite\')\n############### Table for contact list ###############\ndb.define_table(\'contact\',\n                Field(\'name\'),\n                Field(\'phone\'))\n#db=DAL(\'sqlite://storage.sqlite\')\n######################################################\n\n\n############### Table for image blog #################\ndb.define_table(\'image\',\n                Field(\'title\',unique=True),\n                Field(\'file1\',\'upload\'),\n                format=\'%(title)s\')\ndb.define_table(\'post\',\n                Field(\'image_id\',\'reference image\'),\n                Field(\'author\'),\n                Field(\'email\'),\n                Field(\'body\',\'text\'))\ndb.image.title.requires=IS_NOT_IN_DB(db,db.image.title)\ndb.post.image_id.requires=IS_IN_DB(db,db.image.id, \'%(title)s\')\ndb.post.author.requires=IS_NOT_EMPTY()\ndb.post.email.requires=IS_EMAIL()\ndb.post.body.requires=IS_NOT_EMPTY()\ndb.post.image_id.writable=db.post.image_id.readable=False\n############################################################\n\n\n\n############# Table for Discussion forum ####################\ndb.define_table(\'db_topic\',\n                Field(\'topic_title\',unique=True),\n                Field(\'topic_doc\',\'upload\'))\ndb.define_table(\'db_change_room_services\',\n                Field(\'topic_subject\',unique=True),\n                Field(\'topic_document\',\'upload\'))\ndb.define_table(\'db_post\',\n                Field(\'discussion_id\',\'reference db_topic\'),\n                Field(\'post_author\'),\n                Field(\'post_email\'),\n                Field(\'post_body\',\'text\'))\ndb.db_topic.topic_title.requires=IS_NOT_IN_DB(db,db.db_topic.topic_title)\ndb.db_post.post_author.requires=IS_NOT_EMPTY()\ndb.db_post.post_email.requires=IS_EMAIL()\ndb.db_post.discussion_id.writable=db.db_post.discussion_id.readable=False\n###############################################################\n\n\n########### Table for complaint register ###############\ndb.define_table(\'complaintregister\',\n                Field(\'complain_title\'),\n                #Field(\'Complained On\',\'datetime\'),\n                Field(\'Complain_proofs\',\'upload\'),\n                auth.signature)\ndb.complaintregister.complain_title.requires=IS_NOT_IN_DB(db,db.complaintregister.complain_title)\n\n\n######################################################\n\n\n\n######### Table for changing rooms #########\ndb.define_table(\'change_rooms\',\n                Field(\'name_of_room_changer\',unique=True),\n                Field(\'with_whom_you_want_to_change_with\'),\n                Field(\'with_whom_are_you_staying_with\'),\n                Field(\'why_do_you_want_to_change_your_room\'),\n                format=\'%(name_of_room_changer)s\')\n\ndb.define_table(\'ch\',\n               Field(\'change_rooms_id\',\'reference change_rooms\'))\ndb.ch.change_rooms_id.readable=db.ch.change_rooms_id.writable=False\ndb.change_rooms.name_of_room_changer.requires=IS_NOT_IN_DB(db,db.change_rooms.name_of_room_changer)\n##########################################\n\n############ Table for room partners #############\ndb.define_table(\'room_partner_list\',\n                Field(\'serial_number\'),\n                Field(\'room_partner_list_name\'),\n                Field(\'room_partner_name\'))\n#db.define_table(\'xyz\',\n#                Field(\'xyz_name\'))\n##################################################\n\n########### Table for dashboard ####################\ndb.define_table(\'notice_board\',\n                Field(\'notice\'),\n                Field(\'notice_board_priority\',requires=IS_IN_SET([\'1\',\'2\',\'3\',\'4\',\'5\'])))\n\'\'\'from gluon.tools import Auth\nauth = Auth(db)\nauth.define_tables(username=True)\n\'\'\'\n\n\n########## Table to see whether a complaint resolved or not ####################\ndb.define_table(\'tell_outcome\',\n                Field(\'complain_id\',\'reference complaintregister\'),\n                Field(\'problem_outcome\',requires=IS_IN_SET([\'Resolved\',\'Not Resolved\'])))\ndb.tell_outcome.complain_id.readable=db.tell_outcome.complain_id.writable=False\n'
p7
sS'snapshot'
p8
(dp9
S'exception'
p10
(dp11
S'__hash__'
p12
S"<method-wrapper '__hash__' of exceptions.TypeError object>"
p13
sS'__setattr__'
p14
S"<method-wrapper '__setattr__' of exceptions.TypeError object>"
p15
sS'__reduce_ex__'
p16
S'<built-in method __reduce_ex__ of exceptions.TypeError object>'
p17
sS'__getslice__'
p18
S"<method-wrapper '__getslice__' of exceptions.TypeError object>"
p19
sS'__getitem__'
p20
S"<method-wrapper '__getitem__' of exceptions.TypeError object>"
p21
sS'__setstate__'
p22
S'<built-in method __setstate__ of exceptions.TypeError object>'
p23
sS'__reduce__'
p24
S'<built-in method __reduce__ of exceptions.TypeError object>'
p25
sS'__str__'
p26
S"<method-wrapper '__str__' of exceptions.TypeError object>"
p27
sS'__format__'
p28
S'<built-in method __format__ of exceptions.TypeError object>'
p29
sS'__getattribute__'
p30
S"<method-wrapper '__getattribute__' of exceptions.TypeError object>"
p31
sS'__class__'
p32
S"<type 'exceptions.TypeError'>"
p33
sS'__unicode__'
p34
S'<built-in method __unicode__ of exceptions.TypeError object>'
p35
sS'__delattr__'
p36
S"<method-wrapper '__delattr__' of exceptions.TypeError object>"
p37
sS'__subclasshook__'
p38
S'<built-in method __subclasshook__ of type object>'
p39
sS'__repr__'
p40
S"<method-wrapper '__repr__' of exceptions.TypeError object>"
p41
sS'args'
p42
S'("unsupported operand type(s) for -: \'str\' and \'str\'",)'
p43
sS'__dict__'
p44
S'{}'
p45
sS'__sizeof__'
p46
S'<built-in method __sizeof__ of exceptions.TypeError object>'
p47
sS'__doc__'
p48
S"'Inappropriate argument type.'"
p49
sS'__init__'
p50
S"<method-wrapper '__init__' of exceptions.TypeError object>"
p51
sS'__new__'
p52
S'<built-in method __new__ of type object>'
p53
ssS'evalue'
p54
S"unsupported operand type(s) for -: 'str' and 'str'"
p55
sS'request'
p56
cgluon.html
XML_unpickle
p57
(S's\xf5[\x00\x00<div><table><tr><td style="font-weight:bold;vertical-align:top;">ajax</td><td style="vertical-align:top;">:</td><td><div>False</div></td></tr><tr><td style="font-weight:bold;vertical-align:top;">application</td><td style="vertical-align:top;">:</td><td><div>welcome</div></td></tr><tr><td style="font-weight:bold;vertical-align:top;">args</td><td style="vertical-align:top;">:</td><td><div><table><tr><td><div>register</div></td></tr></table></div></td></tr><tr><td style="font-weight:bold;vertical-align:top;">cid</td><td style="vertical-align:top;">:</td><td><div>None</div></td></tr><tr><td style="font-weight:bold;vertical-align:top;">client</td><td style="vertical-align:top;">:</td><td><div>127.0.0.1</div></td></tr><tr><td style="font-weight:bold;vertical-align:top;">controller</td><td style="vertical-align:top;">:</td><td><div>default</div></td></tr><tr><td style="font-weight:bold;vertical-align:top;">cookies</td><td style="vertical-align:top;">:</td><td><div><table><tr><td style="font-weight:bold;vertical-align:top;">session_id_admin</td><td style="vertical-align:top;">:</td><td><div>127.0.0.1-95e86d92-8c42-4add-a60c-91c320e85d1d<table><tr><td style="font-weight:bold;vertical-align:top;">comment</td><td style="vertical-align:top;">:</td><td><div></div></td></tr><tr><td style="font-weight:bold;vertical-align:top;">domain</td><td style="vertical-align:top;">:</td><td><div></div></td></tr><tr><td style="font-weight:bold;vertical-align:top;">expires</td><td style="vertical-align:top;">:</td><td><div></div></td></tr><tr><td style="font-weight:bold;vertical-align:top;">httponly</td><td style="vertical-align:top;">:</td><td><div></div></td></tr><tr><td style="font-weight:bold;vertical-align:top;">max-age</td><td style="vertical-align:top;">:</td><td><div></div></td></tr><tr><td style="font-weight:bold;vertical-align:top;">path</td><td style="vertical-align:top;">:</td><td><div></div></td></tr><tr><td style="font-weight:bold;vertical-align:top;">secure</td><td style="vertical-align:top;">:</td><td><div></div></td></tr><tr><td style="font-weight:bold;vertical-align:top;">version</td><td style="vertical-align:top;">:</td><td><div></div></td></tr></table></div></td></tr><tr><td style="font-weight:bold;vertical-align:top;">session_id_welcome</td><td style="vertical-align:top;">:</td><td><div>127.0.0.1-8a6ce39b-c690-4f4f-b134-a982ed0bdfa0<table><tr><td style="font-weight:bold;vertical-align:top;">comment</td><td style="vertical-align:top;">:</td><td><div></div></td></tr><tr><td style="font-weight:bold;vertical-align:top;">domain</td><td style="vertical-align:top;">:</td><td><div></div></td></tr><tr><td style="font-weight:bold;vertical-align:top;">expires</td><td style="vertical-align:top;">:</td><td><div></div></td></tr><tr><td style="font-weight:bold;vertical-align:top;">httponly</td><td style="vertical-align:top;">:</td><td><div></div></td></tr><tr><td style="font-weight:bold;vertical-align:top;">max-age</td><td style="vertical-align:top;">:</td><td><div></div></td></tr><tr><td style="font-weight:bold;vertical-align:top;">path</td><td style="vertical-align:top;">:</td><td><div></div></td></tr><tr><td style="font-weight:bold;vertical-align:top;">secure</td><td style="vertical-align:top;">:</td><td><div></div></td></tr><tr><td style="font-weight:bold;vertical-align:top;">version</td><td style="vertical-align:top;">:</td><td><div></div></td></tr></table></div></td></tr></table></div></td></tr><tr><td style="font-weight:bold;vertical-align:top;">env</td><td style="vertical-align:top;">:</td><td><div><table><tr><td style="font-weight:bold;vertical-align:top;">CONTENT_LENGTH</td><td style="vertical-align:top;">:</td><td><div>2096</div></td></tr><tr><td style="font-weight:bold;vertical-align:top;">CONTENT_TYPE</td><td style="vertical-align:top;">:</td><td><div>multipart/form-data; boundary=---------------------------18953343472675522601089593957</div></td></tr><tr><td style="font-weight:bold;vertical-align:top;">HTTP_ACCEPT</td><td style="vertical-align:top;">:</td><td><div>text/html,application/xhtml+xml,application/xml;q=0.9,*/*;q=0.8</div></td></tr><tr><td style="font-weight:bold;vertical-align:top;">HTTP_ACCEPT_ENCODING</td><td style="vertical-align:top;">:</td><td><div>gzip, deflate</div></td></tr><tr><td style="font-weight:bold;vertical-align:top;">HTTP_ACCEPT_LANGUAGE</td><td style="vertical-align:top;">:</td><td><div>en-US,en;q=0.5</div></td></tr><tr><td style="font-weight:bold;vertical-align:top;">HTTP_CACHE_CONTROL</td><td style="vertical-align:top;">:</td><td><div>max-age=0</div></td></tr><tr><td style="font-weight:bold;vertical-align:top;">HTTP_CONNECTION</td><td style="vertical-align:top;">:</td><td><div>keep-alive</div></td></tr><tr><td style="font-weight:bold;vertical-align:top;">HTTP_CONTENT_LENGTH</td><td style="vertical-align:top;">:</td><td><div>2096</div></td></tr><tr><td style="font-weight:bold;vertical-align:top;">HTTP_CONTENT_TYPE</td><td style="vertical-align:top;">:</td><td><div>multipart/form-data; boundary=---------------------------18953343472675522601089593957</div></td></tr><tr><td style="font-weight:bold;vertical-align:top;">HTTP_COOKIE</td><td style="vertical-align:top;">:</td><td><div>session_id_welcome=127.0.0.1-8a6ce39b-c690-4f4f-b134-a982ed0bdfa0; session_id_admin=127.0.0.1-95e86d92-8c42-4add-a60c-91c320e85d1d</div></td></tr><tr><td style="font-weight:bold;vertical-align:top;">HTTP_HOST</td><td style="vertical-align:top;">:</td><td><div>127.0.0.1:8000</div></td></tr><tr><td style="font-weight:bold;vertical-align:top;">HTTP_REFERER</td><td style="vertical-align:top;">:</td><td><div>http://127.0.0.1:8000/welcome/default/user/register?_next=/welcome/default/index</div></td></tr><tr><td style="font-weight:bold;vertical-align:top;">HTTP_USER_AGENT</td><td style="vertical-align:top;">:</td><td><div>Mozilla/5.0 (X11; Ubuntu; Linux i686; rv:39.0) Gecko/20100101 Firefox/39.0</div></td></tr><tr><td style="font-weight:bold;vertical-align:top;">PATH_INFO</td><td style="vertical-align:top;">:</td><td><div>/welcome/default/user/register</div></td></tr><tr><td style="font-weight:bold;vertical-align:top;">QUERY_STRING</td><td style="vertical-align:top;">:</td><td><div>_next=/welcome/default/index</div></td></tr><tr><td style="font-weight:bold;vertical-align:top;">REMOTE_ADDR</td><td style="vertical-align:top;">:</td><td><div>127.0.0.1</div></td></tr><tr><td style="font-weight:bold;vertical-align:top;">REMOTE_PORT</td><td style="vertical-align:top;">:</td><td><div>33130</div></td></tr><tr><td style="font-weight:bold;vertical-align:top;">REQUEST_METHOD</td><td style="vertical-align:top;">:</td><td><div>POST</div></td></tr><tr><td style="font-weight:bold;vertical-align:top;">SCRIPT_NAME</td><td style="vertical-align:top;">:</td><td><div></div></td></tr><tr><td style="font-weight:bold;vertical-align:top;">SERVER_NAME</td><td style="vertical-align:top;">:</td><td><div>ThePrototype</div></td></tr><tr><td style="font-weight:bold;vertical-align:top;">SERVER_PORT</td><td style="vertical-align:top;">:</td><td><div>8000</div></td></tr><tr><td style="font-weight:bold;vertical-align:top;">SERVER_PROTOCOL</td><td style="vertical-align:top;">:</td><td><div>HTTP/1.1</div></td></tr><tr><td style="font-weight:bold;vertical-align:top;">SERVER_SOFTWARE</td><td style="vertical-align:top;">:</td><td><div>Rocket 1.2.6</div></td></tr><tr><td style="font-weight:bold;vertical-align:top;">app_folders</td><td style="vertical-align:top;">:</td><td><div>set([&#x27;/home/akash/web2py/applications/admin/&#x27;, &#x27;/home/akash/web2py/applications/welcome/&#x27;])</div></td></tr><tr><td style="font-weight:bold;vertical-align:top;">applications_parent</td><td style="vertical-align:top;">:</td><td><div>/home/akash/web2py</div></td></tr><tr><td style="font-weight:bold;vertical-align:top;">cmd_args</td><td style="vertical-align:top;">:</td><td><div><table></table></div></td></tr><tr><td style="font-weight:bold;vertical-align:top;">cmd_options</td><td style="vertical-align:top;">:</td><td><div>&lt;Values at 0xb5aea1ac: {&#x27;verbose&#x27;: False, &#x27;ip&#x27;: &#x27;127.0.0.1&#x27;, &#x27;debuglevel&#x27;: 30, &#x27;with_scheduler&#x27;: False, &#x27;ips&#x27;: [&#x27;127.0.1.1&#x27;], &#x27;shutdown_timeout&#x27;: 5, &#x27;taskbar&#x27;: False, &#x27;with_coverage&#x27;: False, &#x27;scheduler_groups&#x27;: None, &#x27;port&#x27;: 8000, &#x27;maxthreads&#x27;: None, &#x27;softcron&#x27;: False, &#x27;server_name&#x27;: &#x27;ThePrototype&#x27;, &#x27;bpython&#x27;: False, &#x27;nogui&#x27;: False, &#x27;pid_filename&#x27;: &#x27;httpserver.pid&#x27;, &#x27;print_errors&#x27;: False, &#x27;extcron&#x27;: False, &#x27;runcron&#x27;: False, &#x27;run_system_tests&#x27;: False, &#x27;test&#x27;: None, &#x27;folder&#x27;: &#x27;/home/akash/web2py&#x27;, &#x27;config&#x27;: &#x27;&#x27;, &#x27;minthreads&#x27;: None, &#x27;shell&#x27;: None, &#x27;run&#x27;: &#x27;&#x27;, &#x27;log_filename&#x27;: &#x27;httpserver.log&#x27;, &#x27;profiler_dir&#x27;: None, &#x27;args&#x27;: [&#x27;&#x27;], &#x27;socket_timeout&#x27;: 5, &#x27;ssl_ca_certificate&#x27;: None, &#x27;scheduler&#x27;: None, &#x27;interfaces&#x27;: None, &#x27;ssl_private_key&#x27;: &#x27;&#x27;, &#x27;gae&#x27;: None, &#x27;password&#x27;: &#x27;&lt;ask&gt;&#x27;, &#x27;request_queue_size&#x27;: 5, &#x27;ssl_certificate&#x27;: &#x27;&#x27;, &#x27;cronjob&#x27;: False, &#x27;numthreads&#x27;: None, &#x27;quiet&#x27;: False, &#x27;import_models&#x27;: False, &#x27;timeout&#x27;: 10, &#x27;plain&#x27;: False, &#x27;nobanner&#x27;: False}&gt;</div></td></tr><tr><td style="font-weight:bold;vertical-align:top;">content_length</td><td style="vertical-align:top;">:</td><td><div>2096</div></td></tr><tr><td style="font-weight:bold;vertical-align:top;">content_type</td><td style="vertical-align:top;">:</td><td><div>multipart/form-data; boundary=---------------------------18953343472675522601089593957</div></td></tr><tr><td style="font-weight:bold;vertical-align:top;">db_sessions</td><td style="vertical-align:top;">:</td><td><div>set([])</div></td></tr><tr><td style="font-weight:bold;vertical-align:top;">debugging</td><td style="vertical-align:top;">:</td><td><div>True</div></td></tr><tr><td style="font-weight:bold;vertical-align:top;">gluon_parent</td><td style="vertical-align:top;">:</td><td><div>/home/akash/web2py</div></td></tr><tr><td style="font-weight:bold;vertical-align:top;">http_accept</td><td style="vertical-align:top;">:</td><td><div>text/html,application/xhtml+xml,application/xml;q=0.9,*/*;q=0.8</div></td></tr><tr><td style="font-weight:bold;vertical-align:top;">http_accept_encoding</td><td style="vertical-align:top;">:</td><td><div>gzip, deflate</div></td></tr><tr><td style="font-weight:bold;vertical-align:top;">http_accept_language</td><td style="vertical-align:top;">:</td><td><div>en-US,en;q=0.5</div></td></tr><tr><td style="font-weight:bold;vertical-align:top;">http_cache_control</td><td style="vertical-align:top;">:</td><td><div>max-age=0</div></td></tr><tr><td style="font-weight:bold;vertical-align:top;">http_connection</td><td style="vertical-align:top;">:</td><td><div>keep-alive</div></td></tr><tr><td style="font-weight:bold;vertical-align:top;">http_content_length</td><td style="vertical-align:top;">:</td><td><div>2096</div></td></tr><tr><td style="font-weight:bold;vertical-align:top;">http_content_type</td><td style="vertical-align:top;">:</td><td><div>multipart/form-data; boundary=---------------------------18953343472675522601089593957</div></td></tr><tr><td style="font-weight:bold;vertical-align:top;">http_cookie</td><td style="vertical-align:top;">:</td><td><div>session_id_welcome=127.0.0.1-8a6ce39b-c690-4f4f-b134-a982ed0bdfa0; session_id_admin=127.0.0.1-95e86d92-8c42-4add-a60c-91c320e85d1d</div></td></tr><tr><td style="font-weight:bold;vertical-align:top;">http_host</td><td style="vertical-align:top;">:</td><td><div>127.0.0.1:8000</div></td></tr><tr><td style="font-weight:bold;vertical-align:top;">http_referer</td><td style="vertical-align:top;">:</td><td><div>http://127.0.0.1:8000/welcome/default/user/register?_next=/welcome/default/index</div></td></tr><tr><td style="font-weight:bold;vertical-align:top;">http_user_agent</td><td style="vertical-align:top;">:</td><td><div>Mozilla/5.0 (X11; Ubuntu; Linux i686; rv:39.0) Gecko/20100101 Firefox/39.0</div></td></tr><tr><td style="font-weight:bold;vertical-align:top;">is_jython</td><td style="vertical-align:top;">:</td><td><div>False</div></td></tr><tr><td style="font-weight:bold;vertical-align:top;">is_pypy</td><td style="vertical-align:top;">:</td><td><div>False</div></td></tr><tr><td style="font-weight:bold;vertical-align:top;">is_source</td><td style="vertical-align:top;">:</td><td><div>True</div></td></tr><tr><td style="font-weight:bold;vertical-align:top;">local_hosts</td><td style="vertical-align:top;">:</td><td><div><table><tr><td><div>ThePrototype</div></td></tr><tr><td><div>::1</div></td></tr><tr><td><div>127.0.1.1</div></td></tr><tr><td><div>::ffff:127.0.0.1</div></td></tr><tr><td><div>127.0.0.1</div></td></tr></table></div></td></tr><tr><td style="font-weight:bold;vertical-align:top;">path_info</td><td style="vertical-align:top;">:</td><td><div>/welcome/default/user/register</div></td></tr><tr><td style="font-weight:bold;vertical-align:top;">query_string</td><td style="vertical-align:top;">:</td><td><div>_next=/welcome/default/index</div></td></tr><tr><td style="font-weight:bold;vertical-align:top;">remote_addr</td><td style="vertical-align:top;">:</td><td><div>127.0.0.1</div></td></tr><tr><td style="font-weight:bold;vertical-align:top;">remote_port</td><td style="vertical-align:top;">:</td><td><div>33130</div></td></tr><tr><td style="font-weight:bold;vertical-align:top;">request_method</td><td style="vertical-align:top;">:</td><td><div>POST</div></td></tr><tr><td style="font-weight:bold;vertical-align:top;">request_uri</td><td style="vertical-align:top;">:</td><td><div>/welcome/default/user/register?_next=/welcome/default/index</div></td></tr><tr><td style="font-weight:bold;vertical-align:top;">script_name</td><td style="vertical-align:top;">:</td><td><div></div></td></tr><tr><td style="font-weight:bold;vertical-align:top;">server_name</td><td style="vertical-align:top;">:</td><td><div>ThePrototype</div></td></tr><tr><td style="font-weight:bold;vertical-align:top;">server_port</td><td style="vertical-align:top;">:</td><td><div>8000</div></td></tr><tr><td style="font-weight:bold;vertical-align:top;">server_protocol</td><td style="vertical-align:top;">:</td><td><div>HTTP/1.1</div></td></tr><tr><td style="font-weight:bold;vertical-align:top;">server_software</td><td style="vertical-align:top;">:</td><td><div>Rocket 1.2.6</div></td></tr><tr><td style="font-weight:bold;vertical-align:top;">web2py_path</td><td style="vertical-align:top;">:</td><td><div>/home/akash/web2py</div></td></tr><tr><td style="font-weight:bold;vertical-align:top;">web2py_version</td><td style="vertical-align:top;">:</td><td><div>2.12.3-stable+timestamp.2015.08.19.00.18.03</div></td></tr><tr><td style="font-weight:bold;vertical-align:top;">wsgi.errors</td><td style="vertical-align:top;">:</td><td><div>&lt;open file &#x27;&lt;stderr&gt;&#x27;, mode &#x27;w&#x27; at 0xb753b0d0&gt;</div></td></tr><tr><td style="font-weight:bold;vertical-align:top;">wsgi.file_wrapper</td><td style="vertical-align:top;">:</td><td><div>&lt;class wsgiref.util.FileWrapper at 0xb5b1f3ec&gt;</div></td></tr><tr><td style="font-weight:bold;vertical-align:top;">wsgi.input</td><td style="vertical-align:top;">:</td><td><div>&lt;socket._fileobject object at 0xadf848ac&gt;</div></td></tr><tr><td style="font-weight:bold;vertical-align:top;">wsgi.multiprocess</td><td style="vertical-align:top;">:</td><td><div>False</div></td></tr><tr><td style="font-weight:bold;vertical-align:top;">wsgi.multithread</td><td style="vertical-align:top;">:</td><td><div>True</div></td></tr><tr><td style="font-weight:bold;vertical-align:top;">wsgi.run_once</td><td style="vertical-align:top;">:</td><td><div>False</div></td></tr><tr><td style="font-weight:bold;vertical-align:top;">wsgi.url_scheme</td><td style="vertical-align:top;">:</td><td><div>http</div></td></tr><tr><td style="font-weight:bold;vertical-align:top;">wsgi.version</td><td style="vertical-align:top;">:</td><td><div><table><tr><td><div>1</div></td></tr><tr><td><div>0</div></td></tr></table></div></td></tr><tr><td style="font-weight:bold;vertical-align:top;">wsgi_errors</td><td style="vertical-align:top;">:</td><td><div>&lt;open file &#x27;&lt;stderr&gt;&#x27;, mode &#x27;w&#x27; at 0xb753b0d0&gt;</div></td></tr><tr><td style="font-weight:bold;vertical-align:top;">wsgi_file_wrapper</td><td style="vertical-align:top;">:</td><td><div>&lt;class wsgiref.util.FileWrapper at 0xb5b1f3ec&gt;</div></td></tr><tr><td style="font-weight:bold;vertical-align:top;">wsgi_input</td><td style="vertical-align:top;">:</td><td><div>&lt;socket._fileobject object at 0xadf848ac&gt;</div></td></tr><tr><td style="font-weight:bold;vertical-align:top;">wsgi_multiprocess</td><td style="vertical-align:top;">:</td><td><div>False</div></td></tr><tr><td style="font-weight:bold;vertical-align:top;">wsgi_multithread</td><td style="vertical-align:top;">:</td><td><div>True</div></td></tr><tr><td style="font-weight:bold;vertical-align:top;">wsgi_run_once</td><td style="vertical-align:top;">:</td><td><div>False</div></td></tr><tr><td style="font-weight:bold;vertical-align:top;">wsgi_url_scheme</td><td style="vertical-align:top;">:</td><td><div>http</div></td></tr><tr><td style="font-weight:bold;vertical-align:top;">wsgi_version</td><td style="vertical-align:top;">:</td><td><div><table><tr><td><div>1</div></td></tr><tr><td><div>0</div></td></tr></table></div></td></tr></table></div></td></tr><tr><td style="font-weight:bold;vertical-align:top;">extension</td><td style="vertical-align:top;">:</td><td><div>html</div></td></tr><tr><td style="font-weight:bold;vertical-align:top;">folder</td><td style="vertical-align:top;">:</td><td><div>/home/akash/web2py/applications/welcome/</div></td></tr><tr><td style="font-weight:bold;vertical-align:top;">function</td><td style="vertical-align:top;">:</td><td><div>user</div></td></tr><tr><td style="font-weight:bold;vertical-align:top;">global_settings</td><td style="vertical-align:top;">:</td><td><div><table><tr><td style="font-weight:bold;vertical-align:top;">app_folders</td><td style="vertical-align:top;">:</td><td><div>set([&#x27;/home/akash/web2py/applications/admin/&#x27;, &#x27;/home/akash/web2py/applications/welcome/&#x27;])</div></td></tr><tr><td style="font-weight:bold;vertical-align:top;">applications_parent</td><td style="vertical-align:top;">:</td><td><div>/home/akash/web2py</div></td></tr><tr><td style="font-weight:bold;vertical-align:top;">cmd_args</td><td style="vertical-align:top;">:</td><td><div><table></table></div></td></tr><tr><td style="font-weight:bold;vertical-align:top;">cmd_options</td><td style="vertical-align:top;">:</td><td><div>&lt;Values at 0xb5aea1ac: {&#x27;verbose&#x27;: False, &#x27;ip&#x27;: &#x27;127.0.0.1&#x27;, &#x27;debuglevel&#x27;: 30, &#x27;with_scheduler&#x27;: False, &#x27;ips&#x27;: [&#x27;127.0.1.1&#x27;], &#x27;shutdown_timeout&#x27;: 5, &#x27;taskbar&#x27;: False, &#x27;with_coverage&#x27;: False, &#x27;scheduler_groups&#x27;: None, &#x27;port&#x27;: 8000, &#x27;maxthreads&#x27;: None, &#x27;softcron&#x27;: False, &#x27;server_name&#x27;: &#x27;ThePrototype&#x27;, &#x27;bpython&#x27;: False, &#x27;nogui&#x27;: False, &#x27;pid_filename&#x27;: &#x27;httpserver.pid&#x27;, &#x27;print_errors&#x27;: False, &#x27;extcron&#x27;: False, &#x27;runcron&#x27;: False, &#x27;run_system_tests&#x27;: False, &#x27;test&#x27;: None, &#x27;folder&#x27;: &#x27;/home/akash/web2py&#x27;, &#x27;config&#x27;: &#x27;&#x27;, &#x27;minthreads&#x27;: None, &#x27;shell&#x27;: None, &#x27;run&#x27;: &#x27;&#x27;, &#x27;log_filename&#x27;: &#x27;httpserver.log&#x27;, &#x27;profiler_dir&#x27;: None, &#x27;args&#x27;: [&#x27;&#x27;], &#x27;socket_timeout&#x27;: 5, &#x27;ssl_ca_certificate&#x27;: None, &#x27;scheduler&#x27;: None, &#x27;interfaces&#x27;: None, &#x27;ssl_private_key&#x27;: &#x27;&#x27;, &#x27;gae&#x27;: None, &#x27;password&#x27;: &#x27;&lt;ask&gt;&#x27;, &#x27;request_queue_size&#x27;: 5, &#x27;ssl_certificate&#x27;: &#x27;&#x27;, &#x27;cronjob&#x27;: False, &#x27;numthreads&#x27;: None, &#x27;quiet&#x27;: False, &#x27;import_models&#x27;: False, &#x27;timeout&#x27;: 10, &#x27;plain&#x27;: False, &#x27;nobanner&#x27;: False}&gt;</div></td></tr><tr><td style="font-weight:bold;vertical-align:top;">db_sessions</td><td style="vertical-align:top;">:</td><td><div>set([])</div></td></tr><tr><td style="font-weight:bold;vertical-align:top;">debugging</td><td style="vertical-align:top;">:</td><td><div>True</div></td></tr><tr><td style="font-weight:bold;vertical-align:top;">gluon_parent</td><td style="vertical-align:top;">:</td><td><div>/home/akash/web2py</div></td></tr><tr><td style="font-weight:bold;vertical-align:top;">is_jython</td><td style="vertical-align:top;">:</td><td><div>False</div></td></tr><tr><td style="font-weight:bold;vertical-align:top;">is_pypy</td><td style="vertical-align:top;">:</td><td><div>False</div></td></tr><tr><td style="font-weight:bold;vertical-align:top;">is_source</td><td style="vertical-align:top;">:</td><td><div>True</div></td></tr><tr><td style="font-weight:bold;vertical-align:top;">local_hosts</td><td style="vertical-align:top;">:</td><td><div><table><tr><td><div>ThePrototype</div></td></tr><tr><td><div>::1</div></td></tr><tr><td><div>127.0.1.1</div></td></tr><tr><td><div>::ffff:127.0.0.1</div></td></tr><tr><td><div>127.0.0.1</div></td></tr></table></div></td></tr><tr><td style="font-weight:bold;vertical-align:top;">web2py_version</td><td style="vertical-align:top;">:</td><td><div>2.12.3-stable+timestamp.2015.08.19.00.18.03</div></td></tr></table></div></td></tr><tr><td style="font-weight:bold;vertical-align:top;">is_https</td><td style="vertical-align:top;">:</td><td><div>False</div></td></tr><tr><td style="font-weight:bold;vertical-align:top;">is_local</td><td style="vertical-align:top;">:</td><td><div>True</div></td></tr><tr><td style="font-weight:bold;vertical-align:top;">is_restful</td><td style="vertical-align:top;">:</td><td><div>False</div></td></tr><tr><td style="font-weight:bold;vertical-align:top;">is_sheduler</td><td style="vertical-align:top;">:</td><td><div>None</div></td></tr><tr><td style="font-weight:bold;vertical-align:top;">is_shell</td><td style="vertical-align:top;">:</td><td><div>None</div></td></tr><tr><td style="font-weight:bold;vertical-align:top;">now</td><td style="vertical-align:top;">:</td><td><div>datetime.datetime(2015, 10, 9, 20, 19, 0, 15268)</div></td></tr><tr><td style="font-weight:bold;vertical-align:top;">raw_args</td><td style="vertical-align:top;">:</td><td><div>register</div></td></tr><tr><td style="font-weight:bold;vertical-align:top;">raw_extension</td><td style="vertical-align:top;">:</td><td><div>None</div></td></tr><tr><td style="font-weight:bold;vertical-align:top;">url</td><td style="vertical-align:top;">:</td><td><div>/welcome/default/user/register</div></td></tr><tr><td style="font-weight:bold;vertical-align:top;">utcnow</td><td style="vertical-align:top;">:</td><td><div>datetime.datetime(2015, 10, 9, 14, 49, 0, 15311)</div></td></tr><tr><td style="font-weight:bold;vertical-align:top;">wsgi</td><td style="vertical-align:top;">:</td><td><div>&lt;gluon.main.LazyWSGI object at 0xade311ac&gt;</div></td></tr></table></div>'
tRp58
sS'frames'
p59
(lp60
(dp61
S'file'
p62
S'/home/akash/web2py/gluon/restricted.py'
p63
sS'dump'
p64
(dp65
S'environment'
p66
S"{'A': <class 'gluon.html.A'>, 'ANY_OF': <class 'gluon.validators.ANY_OF'>, 'ASSIGNJS': <function ASSIGNJS>, 'AppConfig': <function AppConfig>, 'Auth': <class 'gluon.tools.Auth'>, 'B': <class 'gluon.html.B'>, 'BEAUTIFY': <class 'gluon.html.BEAUTIFY'>, 'BODY': <class 'gluon.html.BODY'>, 'BR': <class 'gluon.html.BR'>, 'BUTTON': <class 'gluon.html.BUTTON'>, ...}"
p67
sS'ccode'
p68
S'<code object <module> at 0xae1cfda0, file "/home...b2py/applications/welcome/models/db.py", line 13>'
p69
ssS'lnum'
p70
I227
sS'lines'
p71
(dp72
I224
S'            ccode = code'
p73
sI225
S'        else:'
p74
sI226
S'            ccode = compile2(code, layer)'
p75
sI227
S'        exec ccode in environment'
p76
sI228
S'    except HTTP:'
p77
sI229
S'        raise'
p78
sI230
S'    except RestrictedError:'
p79
sI231
S'        # do not encapsulate (obfuscate) the original RestrictedError'
p80
sI222
S'    try:'
p81
sI223
S'        if isinstance(code, types.CodeType):'
p82
ssS'call'
p83
S"(code='# -*- coding: utf-8 -*-\\n\\n#######################...dable=db.tell_outcome.complain_id.writable=False\\n', environment={'A': <class 'gluon.html.A'>, 'ANY_OF': <class 'gluon.validators.ANY_OF'>, 'ASSIGNJS': <function ASSIGNJS>, 'AppConfig': <function AppConfig>, 'Auth': <class 'gluon.tools.Auth'>, 'B': <class 'gluon.html.B'>, 'BEAUTIFY': <class 'gluon.html.BEAUTIFY'>, 'BODY': <class 'gluon.html.BODY'>, 'BR': <class 'gluon.html.BR'>, 'BUTTON': <class 'gluon.html.BUTTON'>, ...}, layer='/home/akash/web2py/applications/welcome/models/db.py')"
p84
sS'func'
p85
S'restricted'
p86
sa(dp87
g62
S'/home/akash/web2py/applications/welcome/models/db.py'
p88
sg64
(dp89
S'Field'
p90
S"<class 'pydal.objects.Field'>"
p91
sS'IS_MATCH'
p92
S"<class 'gluon.validators.IS_MATCH'>"
p93
sS'requires'
p94
S'undefined'
p95
ssg70
I75
sg71
(dp96
I70
S"    Field('phone_number',requires=IS_MATCH('\\d{10}')),"
p97
sI71
S"    Field('physically_handicapped',requires=IS_IN_SET(['Yes','No'])),"
p98
sI72
S"    Field('admission_number'),"
p99
sI73
S"    Field('which_hostel',requires=IS_IN_SET(['Boys Hostel','Girls Hostel'])),"
p100
sI74
S"    Field('floor_no',requires=IS_IN_SET(['Ground','First','Second','Third','Fourth'])),"
p101
sI75
S"    Field('room_number',requires=IS_MATCH('\\d{1}'-'\\c{A-Z}')),"
p102
sI76
S"    Field('type_of_account',requires=IS_IN_SET(['Student','Faculty','Hostel Committee','Super Admin']))]"
p103
sI77
S"#if db.auth_user.which_hostel=='Boys Hostel':"
p104
sI78
S"#    auth.settings.extra_fields['auth_user']=[Field('room_number')]"
p105
sI79
S'auth.define_tables(migrate=False)'
p106
ssg83
S'()'
p107
sg85
S'<module>'
p108
sasS'pyver'
p109
S'Python 2.7.6: /usr/bin/python (prefix: /usr)'
p110
sS'session'
p111
g57
(S's\x9b\x00\x00\x00<div><table><tr><td style="font-weight:bold;vertical-align:top;">counter</td><td style="vertical-align:top;">:</td><td><div>2</div></td></tr></table></div>'
tRp112
sS'etype'
p113
S"<type 'exceptions.TypeError'>"
p114
sS'date'
p115
S'Fri Oct  9 20:19:00 2015'
p116
sS'response'
p117
g57
(S's\xe7\x17\x00\x00<div><table><tr><td style="font-weight:bold;vertical-align:top;">body</td><td style="vertical-align:top;">:</td><td><div>&lt;cStringIO.StringO object at 0xad24ade0&gt;</div></td></tr><tr><td style="font-weight:bold;vertical-align:top;">cookies</td><td style="vertical-align:top;">:</td><td><div><table><tr><td style="font-weight:bold;vertical-align:top;">session_id_welcome</td><td style="vertical-align:top;">:</td><td><div>127.0.0.1-8a6ce39b-c690-4f4f-b134-a982ed0bdfa0<table><tr><td style="font-weight:bold;vertical-align:top;">comment</td><td style="vertical-align:top;">:</td><td><div></div></td></tr><tr><td style="font-weight:bold;vertical-align:top;">domain</td><td style="vertical-align:top;">:</td><td><div></div></td></tr><tr><td style="font-weight:bold;vertical-align:top;">expires</td><td style="vertical-align:top;">:</td><td><div></div></td></tr><tr><td style="font-weight:bold;vertical-align:top;">httponly</td><td style="vertical-align:top;">:</td><td><div></div></td></tr><tr><td style="font-weight:bold;vertical-align:top;">max-age</td><td style="vertical-align:top;">:</td><td><div></div></td></tr><tr><td style="font-weight:bold;vertical-align:top;">path</td><td style="vertical-align:top;">:</td><td><div>/</div></td></tr><tr><td style="font-weight:bold;vertical-align:top;">secure</td><td style="vertical-align:top;">:</td><td><div></div></td></tr><tr><td style="font-weight:bold;vertical-align:top;">version</td><td style="vertical-align:top;">:</td><td><div></div></td></tr></table></div></td></tr></table></div></td></tr><tr><td style="font-weight:bold;vertical-align:top;">delimiters</td><td style="vertical-align:top;">:</td><td><div><table><tr><td><div>{{</div></td></tr><tr><td><div>}}</div></td></tr></table></div></td></tr><tr><td style="font-weight:bold;vertical-align:top;">files</td><td style="vertical-align:top;">:</td><td><div><table></table></div></td></tr><tr><td style="font-weight:bold;vertical-align:top;">flash</td><td style="vertical-align:top;">:</td><td><div></div></td></tr><tr><td style="font-weight:bold;vertical-align:top;">form_label_separator</td><td style="vertical-align:top;">:</td><td><div></div></td></tr><tr><td style="font-weight:bold;vertical-align:top;">formstyle</td><td style="vertical-align:top;">:</td><td><div>bootstrap3_inline</div></td></tr><tr><td style="font-weight:bold;vertical-align:top;">generic_patterns</td><td style="vertical-align:top;">:</td><td><div><table><tr><td><div>*</div></td></tr></table></div></td></tr><tr><td style="font-weight:bold;vertical-align:top;">headers</td><td style="vertical-align:top;">:</td><td><div><table><tr><td style="font-weight:bold;vertical-align:top;">X-Powered-By</td><td style="vertical-align:top;">:</td><td><div>web2py</div></td></tr></table></div></td></tr><tr><td style="font-weight:bold;vertical-align:top;">menu</td><td style="vertical-align:top;">:</td><td><div><table></table></div></td></tr><tr><td style="font-weight:bold;vertical-align:top;">meta</td><td style="vertical-align:top;">:</td><td><div><table></table></div></td></tr><tr><td style="font-weight:bold;vertical-align:top;">models_to_run</td><td style="vertical-align:top;">:</td><td><div><table><tr><td><div>^\\w+\\.py$</div></td></tr><tr><td><div>^default/\\w+\\.py$</div></td></tr><tr><td><div>^default/user/\\w+\\.py$</div></td></tr></table></div></td></tr><tr><td style="font-weight:bold;vertical-align:top;">postprocessing</td><td style="vertical-align:top;">:</td><td><div><table></table></div></td></tr><tr><td style="font-weight:bold;vertical-align:top;">session_client</td><td style="vertical-align:top;">:</td><td><div>127.0.0.1</div></td></tr><tr><td style="font-weight:bold;vertical-align:top;">session_cookie_compression_level</td><td style="vertical-align:top;">:</td><td><div>None</div></td></tr><tr><td style="font-weight:bold;vertical-align:top;">session_cookie_expires</td><td style="vertical-align:top;">:</td><td><div>None</div></td></tr><tr><td style="font-weight:bold;vertical-align:top;">session_cookie_key</td><td style="vertical-align:top;">:</td><td><div>None</div></td></tr><tr><td style="font-weight:bold;vertical-align:top;">session_data_name</td><td style="vertical-align:top;">:</td><td><div>session_data_welcome</div></td></tr><tr><td style="font-weight:bold;vertical-align:top;">session_file</td><td style="vertical-align:top;">:</td><td><div>&lt;open file &#x27;/home/akash/web2py/applications/welcome/sessions/1a3/095/127.0.0.1-8a6ce39b-c690-4f4f-b134-a982ed0bdfa0&#x27;, mode &#x27;rb+&#x27; at 0xb3c99a18&gt;</div></td></tr><tr><td style="font-weight:bold;vertical-align:top;">session_filename</td><td style="vertical-align:top;">:</td><td><div>/home/akash/web2py/applications/welcome/sessions/127.0.0.1-8a6ce39b-c690-4f4f-b134-a982ed0bdfa0</div></td></tr><tr><td style="font-weight:bold;vertical-align:top;">session_hash</td><td style="vertical-align:top;">:</td><td><div>c6dcefbc84d5ec91f75e301a00fa1d7c</div></td></tr><tr><td style="font-weight:bold;vertical-align:top;">session_id</td><td style="vertical-align:top;">:</td><td><div>127.0.0.1-8a6ce39b-c690-4f4f-b134-a982ed0bdfa0</div></td></tr><tr><td style="font-weight:bold;vertical-align:top;">session_id_name</td><td style="vertical-align:top;">:</td><td><div>session_id_welcome</div></td></tr><tr><td style="font-weight:bold;vertical-align:top;">session_locked</td><td style="vertical-align:top;">:</td><td><div>True</div></td></tr><tr><td style="font-weight:bold;vertical-align:top;">session_masterapp</td><td style="vertical-align:top;">:</td><td><div>welcome</div></td></tr><tr><td style="font-weight:bold;vertical-align:top;">session_new</td><td style="vertical-align:top;">:</td><td><div>False</div></td></tr><tr><td style="font-weight:bold;vertical-align:top;">session_storage_type</td><td style="vertical-align:top;">:</td><td><div>file</div></td></tr><tr><td style="font-weight:bold;vertical-align:top;">status</td><td style="vertical-align:top;">:</td><td><div>200</div></td></tr><tr><td style="font-weight:bold;vertical-align:top;">view</td><td style="vertical-align:top;">:</td><td><div>default/user.html</div></td></tr></table></div>'
tRp118
sS'locals'
p119
(dp120
S'Service'
p121
S"<class 'gluon.tools.Service'>"
p122
sS'OBJECT'
p123
S"<class 'gluon.html.OBJECT'>"
p124
sS'SQLDB'
p125
S"<class 'pydal.base.DAL'>"
p126
sg111
S"<Storage {'counter': 2, '_formkey[register]': ['...b206f', '754fd67b-33c0-4b27-84f0-98ee0d5bdfa6']}>"
p127
sS'LINK'
p128
S"<class 'gluon.html.LINK'>"
p129
sS'BR'
p130
S"<class 'gluon.html.BR'>"
p131
sS'local_import'
p132
S'<function <lambda>>'
p133
sS'OPTGROUP'
p134
S"<class 'gluon.html.OPTGROUP'>"
p135
sS'__package__'
p136
S'None'
p137
sS'PRE'
p138
S"<class 'gluon.html.PRE'>"
p139
sS'IS_INT_IN_RANGE'
p140
S"<class 'gluon.validators.IS_INT_IN_RANGE'>"
p141
sS'IS_LOWER'
p142
S"<class 'gluon.validators.IS_LOWER'>"
p143
sS'IS_STRONG'
p144
S"<class 'gluon.validators.IS_STRONG'>"
p145
sS'cache'
p146
S'<gluon.cache.Cache object>'
p147
sS'IS_IN_DB'
p148
S"<class 'gluon.validators.IS_IN_DB'>"
p149
sS'TAG'
p150
S'<gluon.html.__TAG__ object>'
p151
sS'SQLField'
p152
S"<class 'pydal.objects.Field'>"
p153
sS'BODY'
p154
S"<class 'gluon.html.BODY'>"
p155
sS'IS_DATE_IN_RANGE'
p156
S"<class 'gluon.validators.IS_DATE_IN_RANGE'>"
p157
sS'TH'
p158
S"<class 'gluon.html.TH'>"
p159
sS'URL'
p160
S'<function URL>'
p161
sS'__file__'
p162
S"'/home/akash/web2py/applications/welcome/models/db.py'"
p163
sS'db'
p164
S'<DAL uri="sqlite://storage.sqlite">'
p165
sS'auth'
p166
S'<gluon.tools.Auth object>'
p167
sS'P'
S"<class 'gluon.html.P'>"
p168
sS'TFOOT'
p169
S"<class 'gluon.html.TFOOT'>"
p170
sS'XHTML'
p171
S"<class 'gluon.html.XHTML'>"
p172
sS'ON'
p173
S'True'
p174
sS'OL'
p175
S"<class 'gluon.html.OL'>"
p176
sS'TEXTAREA'
p177
S"<class 'gluon.html.TEXTAREA'>"
p178
sS'MENU'
p179
S"<class 'gluon.html.MENU'>"
p180
sS'LOAD'
p181
S'<function LOAD>'
p182
sS'CODE'
p183
S"<class 'gluon.html.CODE'>"
p184
sS'HTTP'
p185
S"<class 'gluon.http.HTTP'>"
p186
sS'HR'
p187
S"<class 'gluon.html.HR'>"
p188
sS'IS_DATETIME'
p189
S"<class 'gluon.validators.IS_DATETIME'>"
p190
sS'HEAD'
p191
S"<class 'gluon.html.HEAD'>"
p192
sS'LABEL'
p193
S"<class 'gluon.html.LABEL'>"
p194
sS'CLEANUP'
p195
S"<class 'gluon.validators.CLEANUP'>"
p196
sS'plugins'
p197
S'<gluon.tools.PluginManager object>'
p198
sS'SELECT'
p199
S"<class 'gluon.html.SELECT'>"
p200
sS'CENTER'
p201
S"<class 'gluon.html.CENTER'>"
p202
sS'Crud'
p203
S"<class 'gluon.tools.Crud'>"
p204
sS'Auth'
p205
S"<class 'gluon.tools.Auth'>"
p206
sS'__builtins__'
p207
S"{'ArithmeticError': <type 'exceptions.ArithmeticError'>, 'AssertionError': <type 'exceptions.AssertionError'>, 'AttributeError': <type 'exceptions.AttributeError'>, 'BaseException': <type 'exceptions.BaseException'>, 'BufferError': <type 'exceptions.BufferError'>, 'BytesWarning': <type 'exceptions.BytesWarning'>, 'DeprecationWarning': <type 'exceptions.DeprecationWarning'>, 'EOFError': <type 'exceptions.EOFError'>, 'Ellipsis': Ellipsis, 'EnvironmentError': <type 'exceptions.EnvironmentError'>, ...}"
p208
sS'HTML'
p209
S"<class 'gluon.html.HTML'>"
p210
sS'SQLFORM'
p211
S"<class 'gluon.sqlhtml.SQLFORM'>"
p212
sS'EM'
p213
S"<class 'gluon.html.EM'>"
p214
sS'redirect'
p215
S'<function redirect>'
p216
sS'FIELDSET'
p217
S"<class 'gluon.html.FIELDSET'>"
p218
sS'IS_EQUAL_TO'
p219
S"<class 'gluon.validators.IS_EQUAL_TO'>"
p220
sS'embed64'
p221
S'<function embed64>'
p222
sS'IS_LIST_OF'
p223
S"<class 'gluon.validators.IS_LIST_OF'>"
p224
sS'__name__'
p225
S"'__restricted__'"
p226
sS'EMBED'
p227
S"<class 'gluon.html.EMBED'>"
p228
sS'FORM'
p229
S"<class 'gluon.html.FORM'>"
p230
sS'myconf'
p231
S"{'forms': {'formstyle': 'bootstrap3_inline', 'se...'you@gmail.com', 'server': 'smtp.gmail.com:587'}}"
p232
sS'H2'
p233
S"<class 'gluon.html.H2'>"
p234
sS'H3'
p235
S"<class 'gluon.html.H3'>"
p236
sS'AppConfig'
p237
S'<function AppConfig>'
p238
sS'H1'
p239
S"<class 'gluon.html.H1'>"
p240
sS'H6'
p241
S"<class 'gluon.html.H6'>"
p242
sS'H4'
p243
S"<class 'gluon.html.H4'>"
p244
sS'H5'
p245
S"<class 'gluon.html.H5'>"
p246
sS'UL'
p247
S"<class 'gluon.html.UL'>"
p248
sS'IS_UPPER'
p249
S"<class 'gluon.validators.IS_UPPER'>"
p250
sS'xmlescape'
p251
S'<function xmlescape>'
p252
sS'IS_TIME'
p253
S"<class 'gluon.validators.IS_TIME'>"
p254
sS'OPTION'
p255
S"<class 'gluon.html.OPTION'>"
p256
sS'TITLE'
p257
S"<class 'gluon.html.TITLE'>"
p258
sS'CRYPT'
p259
S"<class 'gluon.validators.CRYPT'>"
p260
sS'IS_EMPTY_OR'
p261
S"<class 'gluon.validators.IS_EMPTY_OR'>"
p262
sS'MARKMIN'
p263
S"<class 'gluon.html.MARKMIN'>"
p264
sS'INPUT'
p265
S"<class 'gluon.html.INPUT'>"
p266
sS'STRONG'
p267
S"<class 'gluon.html.STRONG'>"
p268
sS'COL'
p269
S"<class 'gluon.html.COL'>"
p270
sS'service'
p271
S'<gluon.tools.Service object>'
p272
sS'SCRIPT'
p273
S"<class 'gluon.html.SCRIPT'>"
p274
sS'TABLE'
p275
S"<class 'gluon.html.TABLE'>"
p276
sS'IS_IPV4'
p277
S"<class 'gluon.validators.IS_IPV4'>"
p278
sS'IS_LENGTH'
p279
S"<class 'gluon.validators.IS_LENGTH'>"
p280
sS'IS_IPV6'
p281
S"<class 'gluon.validators.IS_IPV6'>"
p282
sS'XML'
p283
S"<class 'gluon.html.XML'>"
p284
sS'B'
S"<class 'gluon.html.B'>"
p285
sS'IMG'
p286
S"<class 'gluon.html.IMG'>"
p287
sS'SQLTABLE'
p288
S"<class 'gluon.sqlhtml.SQLTABLE'>"
p289
sS'IS_MATCH'
p290
S"<class 'gluon.validators.IS_MATCH'>"
p291
sS'IS_ALPHANUMERIC'
p292
S"<class 'gluon.validators.IS_ALPHANUMERIC'>"
p293
sS'SPAN'
p294
S"<class 'gluon.html.SPAN'>"
p295
sS'IS_JSON'
p296
S"<class 'gluon.validators.IS_JSON'>"
p297
sS'IS_IPADDRESS'
p298
S"<class 'gluon.validators.IS_IPADDRESS'>"
p299
sS'IS_SLUG'
p300
S"<class 'gluon.validators.IS_SLUG'>"
p301
sS'BEAUTIFY'
p302
S"<class 'gluon.html.BEAUTIFY'>"
p303
sS'META'
p304
S"<class 'gluon.html.META'>"
p305
sS'BUTTON'
p306
S"<class 'gluon.html.BUTTON'>"
p307
sS'IS_DATE'
p308
S"<class 'gluon.validators.IS_DATE'>"
p309
sS'IS_EMAIL'
p310
S"<class 'gluon.validators.IS_EMAIL'>"
p311
sS'IS_NOT_EMPTY'
p312
S"<class 'gluon.validators.IS_NOT_EMPTY'>"
p313
sg56
S"<Storage {'_vars': None, 'function': 'user', 'co...er': '/home/akash/web2py/applications/welcome/'}>"
p314
sS'TBODY'
p315
S"<class 'gluon.html.TBODY'>"
p316
sS'CAT'
p317
S"<class 'gluon.html.CAT'>"
p318
sS'Field'
p319
S"<class 'pydal.objects.Field'>"
p320
sS'IS_LIST_OF_EMAILS'
p321
S"<class 'gluon.validators.IS_LIST_OF_EMAILS'>"
p322
sS'DIV'
p323
S"<class 'gluon.html.DIV'>"
p324
sS'LEGEND'
p325
S"<class 'gluon.html.LEGEND'>"
p326
sS'COLGROUP'
p327
S"<class 'gluon.html.COLGROUP'>"
p328
sS'DAL'
p329
S"<class 'pydal.base.DAL'>"
p330
sS'ASSIGNJS'
p331
S'<function ASSIGNJS>'
p332
sS'TR'
p333
S"<class 'gluon.html.TR'>"
p334
sS'LI'
p335
S"<class 'gluon.html.LI'>"
p336
sS'IFRAME'
p337
S"<class 'gluon.html.IFRAME'>"
p338
sS'TD'
p339
S"<class 'gluon.html.TD'>"
p340
sS'PluginManager'
p341
S"<class 'gluon.tools.PluginManager'>"
p342
sS'IS_URL'
p343
S"<class 'gluon.validators.IS_URL'>"
p344
sS'A'
S"<class 'gluon.html.A'>"
p345
sS'STYLE'
p346
S"<class 'gluon.html.STYLE'>"
p347
sS'IS_DATETIME_IN_RANGE'
p348
S"<class 'gluon.validators.IS_DATETIME_IN_RANGE'>"
p349
sS'IS_IMAGE'
p350
S"<class 'gluon.validators.IS_IMAGE'>"
p351
sS'I'
S"<class 'gluon.html.I'>"
p352
sS'IS_NOT_IN_DB'
p353
S"<class 'gluon.validators.IS_NOT_IN_DB'>"
p354
sg117
S"<Storage {'body': <cStringIO.StringO object at 0...da> at 0xadf9b79c>, 'view': 'default/user.html'}>"
p355
sS'THEAD'
p356
S"<class 'gluon.html.THEAD'>"
p357
sS'ANY_OF'
p358
S"<class 'gluon.validators.ANY_OF'>"
p359
sS'IS_NULL_OR'
p360
S"<class 'gluon.validators.IS_EMPTY_OR'>"
p361
sS'IS_FLOAT_IN_RANGE'
p362
S"<class 'gluon.validators.IS_FLOAT_IN_RANGE'>"
p363
sS'IS_EXPR'
p364
S"<class 'gluon.validators.IS_EXPR'>"
p365
sS'IS_IN_SET'
p366
S"<class 'gluon.validators.IS_IN_SET'>"
p367
sS'IS_UPLOAD_FILENAME'
p368
S"<class 'gluon.validators.IS_UPLOAD_FILENAME'>"
p369
sS'IS_DECIMAL_IN_RANGE'
p370
S"<class 'gluon.validators.IS_DECIMAL_IN_RANGE'>"
p371
sS'TT'
p372
S"<class 'gluon.html.TT'>"
p373
sS'T'
S'<gluon.languages.translator object>'
p374
sssS'traceback'
p375
S'Traceback (most recent call last):\n  File "/home/akash/web2py/gluon/restricted.py", line 227, in restricted\n    exec ccode in environment\n  File "/home/akash/web2py/applications/welcome/models/db.py", line 75, in <module>\n    Field(\'room_number\',requires=IS_MATCH(\'\\d{1}\'-\'\\c{A-Z}\')),\nTypeError: unsupported operand type(s) for -: \'str\' and \'str\'\n'
p376
s.